TN:
SF:/usr/include/c++/5/bits/stl_algobase.h
FN:219,_ZSt3maxImERKT_S2_S2_
FN:282,_ZSt12__niter_baseIP13tMaterialInfoENSt11_Niter_baseIT_E13iterator_typeES3_
FN:282,_ZSt12__niter_baseIP9t3DObjectENSt11_Niter_baseIT_E13iterator_typeES3_
FN:293,_ZSt12__miter_baseIP13tMaterialInfoENSt11_Miter_baseIT_E13iterator_typeES3_
FN:293,_ZSt12__miter_baseIP9t3DObjectENSt11_Miter_baseIT_E13iterator_typeES3_
FN:373,_ZNSt11__copy_moveILb0ELb1ESt26random_access_iterator_tagE8__copy_mI9t3DObjectEEPT_PKS4_S7_S5_
FN:373,_ZNSt11__copy_moveILb0ELb1ESt26random_access_iterator_tagE8__copy_mI13tMaterialInfoEEPT_PKS4_S7_S5_
FN:391,_ZSt13__copy_move_aILb0EP13tMaterialInfoS1_ET1_T0_S3_S2_
FN:391,_ZSt13__copy_move_aILb0EP9t3DObjectS1_ET1_T0_S3_S2_
FN:436,_ZSt14__copy_move_a2ILb0EP13tMaterialInfoS1_ET1_T0_S3_S2_
FN:436,_ZSt14__copy_move_a2ILb0EP9t3DObjectS1_ET1_T0_S3_S2_
FN:462,_ZSt4copyIP13tMaterialInfoS1_ET0_T_S3_S2_
FN:462,_ZSt4copyIP9t3DObjectS1_ET0_T_S3_S2_
FN:575,_ZNSt20__copy_move_backwardILb0ELb1ESt26random_access_iterator_tagE13__copy_move_bI9t3DObjectEEPT_PKS4_S7_S5_
FN:575,_ZNSt20__copy_move_backwardILb0ELb1ESt26random_access_iterator_tagE13__copy_move_bI13tMaterialInfoEEPT_PKS4_S7_S5_
FN:593,_ZSt22__copy_move_backward_aILb0EP9t3DObjectS1_ET1_T0_S3_S2_
FN:593,_ZSt22__copy_move_backward_aILb0EP13tMaterialInfoS1_ET1_T0_S3_S2_
FN:611,_ZSt23__copy_move_backward_a2ILb0EP9t3DObjectS1_ET1_T0_S3_S2_
FN:611,_ZSt23__copy_move_backward_a2ILb0EP13tMaterialInfoS1_ET1_T0_S3_S2_
FN:638,_ZSt13copy_backwardIP13tMaterialInfoS1_ET0_T_S3_S2_
FN:638,_ZSt13copy_backwardIP9t3DObjectS1_ET0_T_S3_S2_
FNDA:40,_ZSt3maxImERKT_S2_S2_
FNDA:12,_ZSt12__niter_baseIP9t3DObjectENSt11_Niter_baseIT_E13iterator_typeES3_
FNDA:12,_ZSt12__niter_baseIP13tMaterialInfoENSt11_Niter_baseIT_E13iterator_typeES3_
FNDA:8,_ZSt12__miter_baseIP9t3DObjectENSt11_Miter_baseIT_E13iterator_typeES3_
FNDA:8,_ZSt12__miter_baseIP13tMaterialInfoENSt11_Miter_baseIT_E13iterator_typeES3_
FNDA:4,_ZNSt11__copy_moveILb0ELb1ESt26random_access_iterator_tagE8__copy_mI9t3DObjectEEPT_PKS4_S7_S5_
FNDA:4,_ZNSt11__copy_moveILb0ELb1ESt26random_access_iterator_tagE8__copy_mI13tMaterialInfoEEPT_PKS4_S7_S5_
FNDA:4,_ZSt13__copy_move_aILb0EP9t3DObjectS1_ET1_T0_S3_S2_
FNDA:4,_ZSt13__copy_move_aILb0EP13tMaterialInfoS1_ET1_T0_S3_S2_
FNDA:4,_ZSt14__copy_move_a2ILb0EP9t3DObjectS1_ET1_T0_S3_S2_
FNDA:4,_ZSt14__copy_move_a2ILb0EP13tMaterialInfoS1_ET1_T0_S3_S2_
FNDA:4,_ZSt4copyIP9t3DObjectS1_ET0_T_S3_S2_
FNDA:4,_ZSt4copyIP13tMaterialInfoS1_ET0_T_S3_S2_
FNDA:0,_ZNSt20__copy_move_backwardILb0ELb1ESt26random_access_iterator_tagE13__copy_move_bI9t3DObjectEEPT_PKS4_S7_S5_
FNDA:0,_ZNSt20__copy_move_backwardILb0ELb1ESt26random_access_iterator_tagE13__copy_move_bI13tMaterialInfoEEPT_PKS4_S7_S5_
FNDA:0,_ZSt22__copy_move_backward_aILb0EP9t3DObjectS1_ET1_T0_S3_S2_
FNDA:0,_ZSt22__copy_move_backward_aILb0EP13tMaterialInfoS1_ET1_T0_S3_S2_
FNDA:0,_ZSt23__copy_move_backward_a2ILb0EP9t3DObjectS1_ET1_T0_S3_S2_
FNDA:0,_ZSt23__copy_move_backward_a2ILb0EP13tMaterialInfoS1_ET1_T0_S3_S2_
FNDA:0,_ZSt13copy_backwardIP9t3DObjectS1_ET0_T_S3_S2_
FNDA:0,_ZSt13copy_backwardIP13tMaterialInfoS1_ET0_T_S3_S2_
FNF:21
FNH:13
DA:219,40
DA:224,40
DA:225,6
DA:226,34
DA:282,24
DA:283,24
DA:293,16
DA:294,16
DA:373,8
DA:382,8
DA:383,8
DA:384,0
DA:385,8
DA:391,8
DA:399,8
DA:402,8
DA:436,8
DA:438,8
DA:440,8
DA:462,8
DA:471,8
DA:472,8
DA:575,0
DA:584,0
DA:585,0
DA:586,0
DA:587,0
DA:593,0
DA:601,0
DA:606,0
DA:611,0
DA:614,0
DA:615,0
DA:638,0
DA:649,0
DA:650,0
LF:36
LH:21
end_of_record
SF:/usr/include/c++/5/bits/stl_construct.h
FN:112,_ZNSt12_Destroy_auxILb1EE9__destroyIP13tMaterialInfoEEvT_S4_
FN:112,_ZNSt12_Destroy_auxILb1EE9__destroyIP9t3DObjectEEvT_S4_
FN:122,_ZSt8_DestroyIP9t3DObjectEvT_S2_
FN:122,_ZSt8_DestroyIP13tMaterialInfoEvT_S2_
FN:148,_ZSt8_DestroyIP13tMaterialInfoS0_EvT_S2_RSaIT0_E
FN:148,_ZSt8_DestroyIP9t3DObjectS0_EvT_S2_RSaIT0_E
FNDA:4,_ZNSt12_Destroy_auxILb1EE9__destroyIP9t3DObjectEEvT_S4_
FNDA:4,_ZNSt12_Destroy_auxILb1EE9__destroyIP13tMaterialInfoEEvT_S4_
FNDA:4,_ZSt8_DestroyIP9t3DObjectEvT_S2_
FNDA:4,_ZSt8_DestroyIP13tMaterialInfoEvT_S2_
FNDA:4,_ZSt8_DestroyIP9t3DObjectS0_EvT_S2_RSaIT0_E
FNDA:4,_ZSt8_DestroyIP13tMaterialInfoS0_EvT_S2_RSaIT0_E
FNF:6
FNH:6
DA:112,8
DA:122,8
DA:126,8
DA:128,8
DA:148,8
DA:151,8
DA:152,8
LF:7
LH:7
end_of_record
SF:/usr/include/c++/5/bits/stl_iterator.h
FN:740,_ZN9__gnu_cxx17__normal_iteratorIP13tMaterialInfoSt6vectorIS1_SaIS1_EEEC2ERKS2_
FN:740,_ZN9__gnu_cxx17__normal_iteratorIP9t3DObjectSt6vectorIS1_SaIS1_EEEC2ERKS2_
FN:753,_ZNK9__gnu_cxx17__normal_iteratorIP13tMaterialInfoSt6vectorIS1_SaIS1_EEEdeEv
FN:753,_ZNK9__gnu_cxx17__normal_iteratorIP9t3DObjectSt6vectorIS1_SaIS1_EEEdeEv
FN:805,_ZNK9__gnu_cxx17__normal_iteratorIP9t3DObjectSt6vectorIS1_SaIS1_EEE4baseEv
FN:805,_ZNK9__gnu_cxx17__normal_iteratorIP13tMaterialInfoSt6vectorIS1_SaIS1_EEE4baseEv
FN:923,_ZN9__gnu_cxxmiIP13tMaterialInfoSt6vectorIS1_SaIS1_EEEENS_17__normal_iteratorIT_T0_E15difference_typeERKS9_SC_
FN:923,_ZN9__gnu_cxxmiIP9t3DObjectSt6vectorIS1_SaIS1_EEEENS_17__normal_iteratorIT_T0_E15difference_typeERKS9_SC_
FNDA:4,_ZN9__gnu_cxx17__normal_iteratorIP9t3DObjectSt6vectorIS1_SaIS1_EEEC2ERKS2_
FNDA:4,_ZN9__gnu_cxx17__normal_iteratorIP13tMaterialInfoSt6vectorIS1_SaIS1_EEEC2ERKS2_
FNDA:0,_ZNK9__gnu_cxx17__normal_iteratorIP9t3DObjectSt6vectorIS1_SaIS1_EEEdeEv
FNDA:0,_ZNK9__gnu_cxx17__normal_iteratorIP13tMaterialInfoSt6vectorIS1_SaIS1_EEEdeEv
FNDA:8,_ZNK9__gnu_cxx17__normal_iteratorIP9t3DObjectSt6vectorIS1_SaIS1_EEE4baseEv
FNDA:8,_ZNK9__gnu_cxx17__normal_iteratorIP13tMaterialInfoSt6vectorIS1_SaIS1_EEE4baseEv
FNDA:2,_ZN9__gnu_cxxmiIP9t3DObjectSt6vectorIS1_SaIS1_EEEENS_17__normal_iteratorIT_T0_E15difference_typeERKS9_SC_
FNDA:2,_ZN9__gnu_cxxmiIP13tMaterialInfoSt6vectorIS1_SaIS1_EEEENS_17__normal_iteratorIT_T0_E15difference_typeERKS9_SC_
FNF:8
FNH:6
DA:740,8
DA:741,8
DA:753,0
DA:754,0
DA:805,16
DA:806,16
DA:923,4
DA:926,4
LF:8
LH:6
end_of_record
SF:/usr/include/c++/5/bits/stl_iterator_base_types.h
FN:215,_ZNSt10_Iter_baseIP9t3DObjectLb0EE7_S_baseES1_
FN:215,_ZNSt10_Iter_baseIP13tMaterialInfoLb0EE7_S_baseES1_
FNDA:20,_ZNSt10_Iter_baseIP9t3DObjectLb0EE7_S_baseES1_
FNDA:20,_ZNSt10_Iter_baseIP13tMaterialInfoLb0EE7_S_baseES1_
FNF:2
FNH:2
DA:215,40
DA:216,40
LF:2
LH:2
end_of_record
SF:/usr/include/c++/5/bits/stl_uninitialized.h
FN:91,_ZNSt20__uninitialized_copyILb1EE13__uninit_copyIP13tMaterialInfoS3_EET0_T_S5_S4_
FN:91,_ZNSt20__uninitialized_copyILb1EE13__uninit_copyIP9t3DObjectS3_EET0_T_S5_S4_
FN:107,_ZSt18uninitialized_copyIP13tMaterialInfoS1_ET0_T_S3_S2_
FN:107,_ZSt18uninitialized_copyIP9t3DObjectS1_ET0_T_S3_S2_
FN:279,_ZSt22__uninitialized_copy_aIP13tMaterialInfoS1_S0_ET0_T_S3_S2_RSaIT1_E
FN:279,_ZSt22__uninitialized_copy_aIP9t3DObjectS1_S0_ET0_T_S3_S2_RSaIT1_E
FN:297,_ZSt34__uninitialized_move_if_noexcept_aIP13tMaterialInfoS1_SaIS0_EET0_T_S4_S3_RT1_
FN:297,_ZSt34__uninitialized_move_if_noexcept_aIP9t3DObjectS1_SaIS0_EET0_T_S4_S3_RT1_
FNDA:4,_ZNSt20__uninitialized_copyILb1EE13__uninit_copyIP9t3DObjectS3_EET0_T_S5_S4_
FNDA:4,_ZNSt20__uninitialized_copyILb1EE13__uninit_copyIP13tMaterialInfoS3_EET0_T_S5_S4_
FNDA:4,_ZSt18uninitialized_copyIP9t3DObjectS1_ET0_T_S3_S2_
FNDA:4,_ZSt18uninitialized_copyIP13tMaterialInfoS1_ET0_T_S3_S2_
FNDA:4,_ZSt22__uninitialized_copy_aIP9t3DObjectS1_S0_ET0_T_S3_S2_RSaIT1_E
FNDA:4,_ZSt22__uninitialized_copy_aIP13tMaterialInfoS1_S0_ET0_T_S3_S2_RSaIT1_E
FNDA:4,_ZSt34__uninitialized_move_if_noexcept_aIP9t3DObjectS1_SaIS0_EET0_T_S4_S3_RT1_
FNDA:4,_ZSt34__uninitialized_move_if_noexcept_aIP13tMaterialInfoS1_SaIS0_EET0_T_S4_S3_RT1_
FNF:8
FNH:8
DA:91,8
DA:93,8
DA:107,8
DA:115,8
DA:126,8
DA:279,8
DA:281,8
DA:297,8
DA:304,8
LF:9
LH:9
end_of_record
SF:/usr/include/c++/5/bits/stl_vector.h
FN:113,_ZNSt12_Vector_baseI9t3DObjectSaIS0_EE19_M_get_Tp_allocatorEv
FN:113,_ZNSt12_Vector_baseI13tMaterialInfoSaIS0_EE19_M_get_Tp_allocatorEv
FN:117,_ZNKSt12_Vector_baseI9t3DObjectSaIS0_EE19_M_get_Tp_allocatorEv
FN:117,_ZNKSt12_Vector_baseI13tMaterialInfoSaIS0_EE19_M_get_Tp_allocatorEv
FN:167,_ZNSt12_Vector_baseI9t3DObjectSaIS0_EE11_M_allocateEm
FN:167,_ZNSt12_Vector_baseI13tMaterialInfoSaIS0_EE11_M_allocateEm
FN:174,_ZNSt12_Vector_baseI13tMaterialInfoSaIS0_EE13_M_deallocateEPS0_m
FN:174,_ZNSt12_Vector_baseI9t3DObjectSaIS0_EE13_M_deallocateEPS0_m
FN:547,_ZNSt6vectorI13tMaterialInfoSaIS0_EE5beginEv
FN:547,_ZNSt6vectorI9t3DObjectSaIS0_EE5beginEv
FN:565,_ZNSt6vectorI13tMaterialInfoSaIS0_EE3endEv
FN:565,_ZNSt6vectorI9t3DObjectSaIS0_EE3endEv
FN:654,_ZNKSt6vectorI13tMaterialInfoSaIS0_EE4sizeEv
FN:654,_ZNKSt6vectorI9t3DObjectSaIS0_EE4sizeEv
FN:659,_ZNKSt6vectorI13tMaterialInfoSaIS0_EE8max_sizeEv
FN:659,_ZNKSt6vectorI9t3DObjectSaIS0_EE8max_sizeEv
FN:779,_ZNSt6vectorI13tMaterialInfoSaIS0_EEixEm
FN:779,_ZNSt6vectorI9t3DObjectSaIS0_EEixEm
FN:913,_ZNSt6vectorI13tMaterialInfoSaIS0_EE9push_backERKS0_
FN:913,_ZNSt6vectorI9t3DObjectSaIS0_EE9push_backERKS0_
FN:1422,_ZNKSt6vectorI13tMaterialInfoSaIS0_EE12_M_check_lenEmPKc
FN:1422,_ZNKSt6vectorI9t3DObjectSaIS0_EE12_M_check_lenEmPKc
FNDA:8,_ZNSt12_Vector_baseI9t3DObjectSaIS0_EE19_M_get_Tp_allocatorEv
FNDA:8,_ZNSt12_Vector_baseI13tMaterialInfoSaIS0_EE19_M_get_Tp_allocatorEv
FNDA:4,_ZNKSt12_Vector_baseI9t3DObjectSaIS0_EE19_M_get_Tp_allocatorEv
FNDA:4,_ZNKSt12_Vector_baseI13tMaterialInfoSaIS0_EE19_M_get_Tp_allocatorEv
FNDA:2,_ZNSt12_Vector_baseI9t3DObjectSaIS0_EE11_M_allocateEm
FNDA:2,_ZNSt12_Vector_baseI13tMaterialInfoSaIS0_EE11_M_allocateEm
FNDA:4,_ZNSt12_Vector_baseI9t3DObjectSaIS0_EE13_M_deallocateEPS0_m
FNDA:4,_ZNSt12_Vector_baseI13tMaterialInfoSaIS0_EE13_M_deallocateEPS0_m
FNDA:2,_ZNSt6vectorI9t3DObjectSaIS0_EE5beginEv
FNDA:2,_ZNSt6vectorI13tMaterialInfoSaIS0_EE5beginEv
FNDA:2,_ZNSt6vectorI9t3DObjectSaIS0_EE3endEv
FNDA:2,_ZNSt6vectorI13tMaterialInfoSaIS0_EE3endEv
FNDA:10,_ZNKSt6vectorI9t3DObjectSaIS0_EE4sizeEv
FNDA:8,_ZNKSt6vectorI13tMaterialInfoSaIS0_EE4sizeEv
FNDA:4,_ZNKSt6vectorI9t3DObjectSaIS0_EE8max_sizeEv
FNDA:4,_ZNKSt6vectorI13tMaterialInfoSaIS0_EE8max_sizeEv
FNDA:16,_ZNSt6vectorI13tMaterialInfoSaIS0_EEixEm
FNDA:10,_ZNSt6vectorI9t3DObjectSaIS0_EEixEm
FNDA:2,_ZNSt6vectorI9t3DObjectSaIS0_EE9push_backERKS0_
FNDA:2,_ZNSt6vectorI13tMaterialInfoSaIS0_EE9push_backERKS0_
FNDA:2,_ZNKSt6vectorI9t3DObjectSaIS0_EE12_M_check_lenEmPKc
FNDA:2,_ZNKSt6vectorI13tMaterialInfoSaIS0_EE12_M_check_lenEmPKc
FNF:22
FNH:22
DA:113,16
DA:114,16
DA:117,8
DA:118,8
DA:167,4
DA:170,4
DA:174,8
DA:177,8
DA:178,4
DA:179,8
DA:547,4
DA:548,4
DA:565,4
DA:566,4
DA:654,18
DA:655,18
DA:659,8
DA:660,8
DA:779,26
DA:780,26
DA:913,4
DA:915,4
DA:917,0
DA:919,0
DA:925,4
DA:927,4
DA:1422,4
DA:1424,4
DA:1425,0
DA:1427,4
DA:1428,4
LF:31
LH:28
end_of_record
SF:/usr/include/c++/5/bits/vector.tcc
FN:326,_ZNSt6vectorI13tMaterialInfoSaIS0_EE13_M_insert_auxEN9__gnu_cxx17__normal_iteratorIPS0_S2_EERKS0_
FN:326,_ZNSt6vectorI9t3DObjectSaIS0_EE13_M_insert_auxEN9__gnu_cxx17__normal_iteratorIPS0_S2_EERKS0_
FNDA:2,_ZNSt6vectorI9t3DObjectSaIS0_EE13_M_insert_auxEN9__gnu_cxx17__normal_iteratorIPS0_S2_EERKS0_
FNDA:2,_ZNSt6vectorI13tMaterialInfoSaIS0_EE13_M_insert_auxEN9__gnu_cxx17__normal_iteratorIPS0_S2_EERKS0_
FNF:2
FNH:2
DA:326,4
DA:330,4
DA:332,0
DA:333,0
DA:335,0
DA:337,0
DA:339,0
DA:343,0
DA:351,4
DA:352,4
DA:353,4
DA:354,4
DA:361,4
DA:368,4
DA:370,4
DA:372,4
DA:373,4
DA:375,4
DA:377,4
DA:379,4
DA:380,4
DA:382,0
DA:384,0
DA:385,0
DA:388,0
DA:389,0
DA:390,0
DA:392,4
DA:393,4
DA:394,8
DA:396,8
DA:397,4
DA:398,4
DA:399,4
DA:401,4
LF:35
LH:23
end_of_record
SF:/usr/include/c++/5/ext/alloc_traits.h
FN:181,_ZN9__gnu_cxx14__alloc_traitsISaI9t3DObjectEE8allocateERS2_m
FN:181,_ZN9__gnu_cxx14__alloc_traitsISaI13tMaterialInfoEE8allocateERS2_m
FN:184,_ZN9__gnu_cxx14__alloc_traitsISaI9t3DObjectEE10deallocateERS2_PS1_m
FN:184,_ZN9__gnu_cxx14__alloc_traitsISaI13tMaterialInfoEE10deallocateERS2_PS1_m
FN:188,_ZN9__gnu_cxx14__alloc_traitsISaI9t3DObjectEE9constructIS1_EEvRS2_PS1_RKT_
FN:188,_ZN9__gnu_cxx14__alloc_traitsISaI13tMaterialInfoEE9constructIS1_EEvRS2_PS1_RKT_
FN:191,_ZN9__gnu_cxx14__alloc_traitsISaI9t3DObjectEE7destroyERS2_PS1_
FN:191,_ZN9__gnu_cxx14__alloc_traitsISaI13tMaterialInfoEE7destroyERS2_PS1_
FN:194,_ZN9__gnu_cxx14__alloc_traitsISaI9t3DObjectEE8max_sizeERKS2_
FN:194,_ZN9__gnu_cxx14__alloc_traitsISaI13tMaterialInfoEE8max_sizeERKS2_
FNDA:2,_ZN9__gnu_cxx14__alloc_traitsISaI9t3DObjectEE8allocateERS2_m
FNDA:2,_ZN9__gnu_cxx14__alloc_traitsISaI13tMaterialInfoEE8allocateERS2_m
FNDA:2,_ZN9__gnu_cxx14__alloc_traitsISaI9t3DObjectEE10deallocateERS2_PS1_m
FNDA:2,_ZN9__gnu_cxx14__alloc_traitsISaI13tMaterialInfoEE10deallocateERS2_PS1_m
FNDA:2,_ZN9__gnu_cxx14__alloc_traitsISaI9t3DObjectEE9constructIS1_EEvRS2_PS1_RKT_
FNDA:2,_ZN9__gnu_cxx14__alloc_traitsISaI13tMaterialInfoEE9constructIS1_EEvRS2_PS1_RKT_
FNDA:0,_ZN9__gnu_cxx14__alloc_traitsISaI9t3DObjectEE7destroyERS2_PS1_
FNDA:0,_ZN9__gnu_cxx14__alloc_traitsISaI13tMaterialInfoEE7destroyERS2_PS1_
FNDA:4,_ZN9__gnu_cxx14__alloc_traitsISaI9t3DObjectEE8max_sizeERKS2_
FNDA:4,_ZN9__gnu_cxx14__alloc_traitsISaI13tMaterialInfoEE8max_sizeERKS2_
FNF:10
FNH:8
DA:181,4
DA:182,4
DA:184,4
DA:185,4
DA:188,4
DA:189,4
DA:191,0
DA:192,0
DA:194,8
DA:195,8
LF:10
LH:8
end_of_record
SF:/usr/include/c++/5/ext/new_allocator.h
FN:99,_ZN9__gnu_cxx13new_allocatorI9t3DObjectE8allocateEmPKv
FN:99,_ZN9__gnu_cxx13new_allocatorI13tMaterialInfoE8allocateEmPKv
FN:109,_ZN9__gnu_cxx13new_allocatorI13tMaterialInfoE10deallocateEPS1_m
FN:109,_ZN9__gnu_cxx13new_allocatorI9t3DObjectE10deallocateEPS1_m
FN:113,_ZNK9__gnu_cxx13new_allocatorI13tMaterialInfoE8max_sizeEv
FN:113,_ZNK9__gnu_cxx13new_allocatorI9t3DObjectE8max_sizeEv
FN:129,_ZN9__gnu_cxx13new_allocatorI9t3DObjectE9constructEPS1_RKS1_
FN:129,_ZN9__gnu_cxx13new_allocatorI13tMaterialInfoE9constructEPS1_RKS1_
FN:133,_ZN9__gnu_cxx13new_allocatorI9t3DObjectE7destroyEPS1_
FN:133,_ZN9__gnu_cxx13new_allocatorI13tMaterialInfoE7destroyEPS1_
FNDA:2,_ZN9__gnu_cxx13new_allocatorI9t3DObjectE8allocateEmPKv
FNDA:2,_ZN9__gnu_cxx13new_allocatorI13tMaterialInfoE8allocateEmPKv
FNDA:2,_ZN9__gnu_cxx13new_allocatorI9t3DObjectE10deallocateEPS1_m
FNDA:2,_ZN9__gnu_cxx13new_allocatorI13tMaterialInfoE10deallocateEPS1_m
FNDA:6,_ZNK9__gnu_cxx13new_allocatorI9t3DObjectE8max_sizeEv
FNDA:6,_ZNK9__gnu_cxx13new_allocatorI13tMaterialInfoE8max_sizeEv
FNDA:2,_ZN9__gnu_cxx13new_allocatorI9t3DObjectE9constructEPS1_RKS1_
FNDA:2,_ZN9__gnu_cxx13new_allocatorI13tMaterialInfoE9constructEPS1_RKS1_
FNDA:0,_ZN9__gnu_cxx13new_allocatorI9t3DObjectE7destroyEPS1_
FNDA:0,_ZN9__gnu_cxx13new_allocatorI13tMaterialInfoE7destroyEPS1_
FNF:10
FNH:8
DA:99,4
DA:101,4
DA:102,0
DA:104,4
DA:109,4
DA:110,4
DA:113,12
DA:114,12
DA:129,4
DA:130,4
DA:133,0
LF:11
LH:9
end_of_record
SF:/usr/include/c++/5/new
FN:129,_ZnwmPv
FNDA:138906,_ZnwmPv
FNF:1
FNH:1
DA:129,138906
DA:130,138906
LF:2
LH:2
end_of_record
SF:/disk2/graphdev/TinyGLRender/test3ds/Render3DRdc01/3DS.cpp
FN:7,_Z11empty_chunkP6tChunk
FN:12,_ZN8CLoad3DSC2Ev
FN:19,_ZN8CLoad3DS9Import3DSEP8t3DModelPc
FN:64,_ZN8CLoad3DS7CleanUpEv
FN:75,_ZN8CLoad3DS16ProcessNextChunkEP8t3DModelP6tChunk
FN:180,_ZN8CLoad3DS22ProcessNextObjectChunkEP8t3DModelP9t3DObjectP6tChunk
FN:242,_ZN8CLoad3DS24ProcessNextMaterialChunkEP8t3DModelP6tChunk
FN:297,_ZN8CLoad3DS9ReadChunkEP6tChunk
FN:307,_ZN8CLoad3DS9GetStringEPc
FN:327,_ZN8CLoad3DS14ReadColorChunkEP13tMaterialInfoP6tChunk
FN:340,_ZN8CLoad3DS17ReadVertexIndicesEP9t3DObjectP6tChunk
FN:370,_ZN8CLoad3DS17ReadUVCoordinatesEP9t3DObjectP6tChunk
FN:385,_ZN8CLoad3DS12ReadVerticesEP9t3DObjectP6tChunk
FN:419,_ZN8CLoad3DS18ReadObjectMaterialEP8t3DModelP9t3DObjectP6tChunk
FN:463,_Z6Vector8CVector3S_
FN:475,_Z9AddVector8CVector3S_
FN:487,_Z20DivideVectorByScaler8CVector3f
FN:499,_Z5Cross8CVector3S_
FN:513,_Z9Normalize8CVector3
FN:527,_ZN8CLoad3DS14ComputeNormalsEP8t3DModel
FNDA:16,_Z11empty_chunkP6tChunk
FNDA:2,_ZN8CLoad3DSC2Ev
FNDA:2,_ZN8CLoad3DS9Import3DSEP8t3DModelPc
FNDA:2,_ZN8CLoad3DS7CleanUpEv
FNDA:4,_ZN8CLoad3DS16ProcessNextChunkEP8t3DModelP6tChunk
FNDA:4,_ZN8CLoad3DS22ProcessNextObjectChunkEP8t3DModelP9t3DObjectP6tChunk
FNDA:4,_ZN8CLoad3DS24ProcessNextMaterialChunkEP8t3DModelP6tChunk
FNDA:68,_ZN8CLoad3DS9ReadChunkEP6tChunk
FNDA:4,_ZN8CLoad3DS9GetStringEPc
FNDA:2,_ZN8CLoad3DS14ReadColorChunkEP13tMaterialInfoP6tChunk
FNDA:2,_ZN8CLoad3DS17ReadVertexIndicesEP9t3DObjectP6tChunk
FNDA:2,_ZN8CLoad3DS17ReadUVCoordinatesEP9t3DObjectP6tChunk
FNDA:2,_ZN8CLoad3DS12ReadVerticesEP9t3DObjectP6tChunk
FNDA:2,_ZN8CLoad3DS18ReadObjectMaterialEP8t3DModelP9t3DObjectP6tChunk
FNDA:12744,_Z6Vector8CVector3S_
FNDA:19116,_Z9AddVector8CVector3S_
FNDA:3366,_Z20DivideVectorByScaler8CVector3f
FNDA:6372,_Z5Cross8CVector3S_
FNDA:9738,_Z9Normalize8CVector3
FNDA:2,_ZN8CLoad3DS14ComputeNormalsEP8t3DModel
FNF:20
FNH:20
DA:7,16
DA:9,16
DA:10,16
DA:12,2
DA:14,2
DA:15,2
DA:16,2
DA:19,2
DA:21,2
DA:24,2
DA:27,2
DA:29,0
DA:31,0
DA:38,2
DA:41,2
DA:43,0
DA:45,0
DA:51,2
DA:54,2
DA:57,2
DA:59,2
DA:64,2
DA:67,2
DA:68,2
DA:69,2
DA:70,2
DA:75,4
DA:77,4
DA:78,4
DA:79,4
DA:80,4
DA:82,4
DA:84,4
DA:89,28
DA:92,12
DA:95,12
DA:102,2
DA:107,2
DA:112,2
DA:115,2
DA:118,2
DA:121,2
DA:122,2
DA:127,2
DA:130,2
DA:133,2
DA:134,2
DA:141,2
DA:144,2
DA:147,2
DA:150,2
DA:153,2
DA:154,2
DA:159,2
DA:160,2
DA:165,2
DA:166,2
DA:170,12
DA:174,4
DA:175,4
DA:176,4
DA:180,4
DA:182,4
DA:185,4
DA:188,32
DA:191,14
DA:194,14
DA:199,2
DA:200,2
DA:203,2
DA:204,2
DA:207,2
DA:208,2
DA:216,2
DA:217,2
DA:222,2
DA:223,2
DA:228,4
DA:229,4
DA:233,14
DA:237,4
DA:238,4
DA:239,4
DA:242,4
DA:244,4
DA:247,4
DA:250,76
DA:253,36
DA:256,36
DA:261,2
DA:262,2
DA:265,2
DA:266,2
DA:271,2
DA:272,2
DA:277,2
DA:278,2
DA:283,28
DA:284,28
DA:288,36
DA:292,4
DA:293,4
DA:294,4
DA:297,68
DA:300,68
DA:303,68
DA:304,68
DA:307,4
DA:309,4
DA:312,4
DA:315,72
DA:318,34
DA:322,4
DA:327,2
DA:330,2
DA:333,2
DA:336,2
DA:337,2
DA:340,2
DA:342,2
DA:345,2
DA:348,2
DA:349,2
DA:352,6374
DA:354,31860
DA:357,25488
DA:359,25488
DA:362,19116
DA:366,2
DA:370,2
DA:375,2
DA:378,2
DA:381,2
DA:382,2
DA:385,2
DA:390,2
DA:393,2
DA:394,2
DA:397,2
DA:404,3368
DA:407,3366
DA:410,3366
DA:413,3366
DA:415,2
DA:419,2
DA:421,2
DA:422,2
DA:427,2
DA:430,2
DA:433,2
DA:436,2
DA:439,2
DA:442,2
DA:444,2
DA:449,0
DA:453,2
DA:454,2
DA:463,12744
DA:467,12744
DA:468,12744
DA:469,12744
DA:471,12744
DA:475,19116
DA:479,19116
DA:480,19116
DA:481,19116
DA:483,19116
DA:487,3366
DA:491,3366
DA:492,3366
DA:493,3366
DA:495,3366
DA:499,6372
DA:503,6372
DA:505,6372
DA:507,6372
DA:509,6372
DA:513,9738
DA:517,9738
DA:519,9738
DA:520,9738
DA:521,9738
DA:523,9738
DA:527,2
DA:532,2
DA:533,0
DA:536,4
DA:539,2
DA:542,2
DA:543,2
DA:544,2
DA:547,6374
DA:549,6372
DA:550,6372
DA:551,6372
DA:555,6372
DA:556,6372
DA:558,6372
DA:559,6372
DA:560,6372
DA:562,6372
DA:566,2
DA:567,2
DA:568,2
DA:570,3368
DA:572,10727442
DA:574,21441780
DA:575,21429036
DA:576,10711332
DA:578,19116
DA:579,19116
DA:583,3366
DA:586,3366
DA:588,3366
DA:589,3366
DA:593,2
DA:594,2
LF:217
LH:211
end_of_record
TN:
SF:/usr/include/c++/5/bits/allocator.h
FN:113,_ZNSaI9t3DObjectEC2Ev
FN:113,_ZNSaI8triangleEC2Ev
FN:113,_ZNSaI13tMaterialInfoEC2Ev
FN:121,_ZNSaI8triangleED2Ev
FN:121,_ZNSaI13tMaterialInfoED2Ev
FN:121,_ZNSaI9t3DObjectED2Ev
FNDA:2,_ZNSaI8triangleEC2Ev
FNDA:2,_ZNSaI9t3DObjectEC2Ev
FNDA:2,_ZNSaI13tMaterialInfoEC2Ev
FNDA:2,_ZNSaI8triangleED2Ev
FNDA:2,_ZNSaI9t3DObjectED2Ev
FNDA:2,_ZNSaI13tMaterialInfoED2Ev
FNF:6
FNH:6
DA:113,6
DA:121,6
LF:2
LH:2
end_of_record
SF:/usr/include/c++/5/bits/basic_string.h
FN:4783,_ZStplIcSt11char_traitsIcESaIcEENSt7__cxx1112basic_stringIT_T0_T1_EERKS8_SA_
FNDA:2,_ZStplIcSt11char_traitsIcESaIcEENSt7__cxx1112basic_stringIT_T0_T1_EERKS8_SA_
FNF:1
FNH:1
DA:4783,2
DA:4786,2
DA:4787,2
DA:4788,2
LF:4
LH:4
end_of_record
SF:/usr/include/c++/5/bits/ios_base.h
FN:129,_ZStorSt13_Ios_OpenmodeS_
FNDA:2,_ZStorSt13_Ios_OpenmodeS_
FNF:1
FNH:1
DA:129,2
DA:130,2
LF:2
LH:2
end_of_record
SF:/usr/include/c++/5/bits/postypes.h
FN:133,_ZNSt4fposI11__mbstate_tEC2El
FNDA:2,_ZNSt4fposI11__mbstate_tEC2El
FNF:1
FNH:1
DA:133,2
DA:134,2
LF:2
LH:2
end_of_record
SF:/usr/include/c++/5/bits/stl_algobase.h
FN:219,_ZSt3maxImERKT_S2_S2_
FN:282,_ZSt12__niter_baseIP8triangleENSt11_Niter_baseIT_E13iterator_typeES3_
FN:293,_ZSt12__miter_baseIP8triangleENSt11_Miter_baseIT_E13iterator_typeES3_
FN:373,_ZNSt11__copy_moveILb0ELb1ESt26random_access_iterator_tagE8__copy_mI8triangleEEPT_PKS4_S7_S5_
FN:391,_ZSt13__copy_move_aILb0EP8triangleS1_ET1_T0_S3_S2_
FN:436,_ZSt14__copy_move_a2ILb0EP8triangleS1_ET1_T0_S3_S2_
FN:462,_ZSt4copyIP8triangleS1_ET0_T_S3_S2_
FN:575,_ZNSt20__copy_move_backwardILb0ELb1ESt26random_access_iterator_tagE13__copy_move_bI8triangleEEPT_PKS4_S7_S5_
FN:593,_ZSt22__copy_move_backward_aILb0EP8triangleS1_ET1_T0_S3_S2_
FN:611,_ZSt23__copy_move_backward_a2ILb0EP8triangleS1_ET1_T0_S3_S2_
FN:638,_ZSt13copy_backwardIP8triangleS1_ET0_T_S3_S2_
FNDA:0,_ZSt3maxImERKT_S2_S2_
FNDA:216,_ZSt12__niter_baseIP8triangleENSt11_Niter_baseIT_E13iterator_typeES3_
FNDA:144,_ZSt12__miter_baseIP8triangleENSt11_Miter_baseIT_E13iterator_typeES3_
FNDA:72,_ZNSt11__copy_moveILb0ELb1ESt26random_access_iterator_tagE8__copy_mI8triangleEEPT_PKS4_S7_S5_
FNDA:72,_ZSt13__copy_move_aILb0EP8triangleS1_ET1_T0_S3_S2_
FNDA:72,_ZSt14__copy_move_a2ILb0EP8triangleS1_ET1_T0_S3_S2_
FNDA:72,_ZSt4copyIP8triangleS1_ET0_T_S3_S2_
FNDA:0,_ZNSt20__copy_move_backwardILb0ELb1ESt26random_access_iterator_tagE13__copy_move_bI8triangleEEPT_PKS4_S7_S5_
FNDA:0,_ZSt22__copy_move_backward_aILb0EP8triangleS1_ET1_T0_S3_S2_
FNDA:0,_ZSt23__copy_move_backward_a2ILb0EP8triangleS1_ET1_T0_S3_S2_
FNDA:0,_ZSt13copy_backwardIP8triangleS1_ET0_T_S3_S2_
FNF:11
FNH:6
DA:219,0
DA:224,0
DA:225,0
DA:226,0
DA:282,216
DA:283,216
DA:293,144
DA:294,144
DA:373,72
DA:382,72
DA:383,72
DA:384,34
DA:385,72
DA:391,72
DA:399,72
DA:402,72
DA:436,72
DA:438,72
DA:440,72
DA:462,72
DA:471,72
DA:472,72
DA:575,0
DA:584,0
DA:585,0
DA:586,0
DA:587,0
DA:593,0
DA:601,0
DA:606,0
DA:611,0
DA:614,0
DA:615,0
DA:638,0
DA:649,0
DA:650,0
LF:36
LH:18
end_of_record
SF:/usr/include/c++/5/bits/stl_construct.h
FN:112,_ZNSt12_Destroy_auxILb1EE9__destroyIP13tMaterialInfoEEvT_S4_
FN:112,_ZNSt12_Destroy_auxILb1EE9__destroyIP9t3DObjectEEvT_S4_
FN:112,_ZNSt12_Destroy_auxILb1EE9__destroyIP8triangleEEvT_S4_
FN:122,_ZSt8_DestroyIP8triangleEvT_S2_
FN:122,_ZSt8_DestroyIP9t3DObjectEvT_S2_
FN:122,_ZSt8_DestroyIP13tMaterialInfoEvT_S2_
FN:148,_ZSt8_DestroyIP8triangleS0_EvT_S2_RSaIT0_E
FN:148,_ZSt8_DestroyIP9t3DObjectS0_EvT_S2_RSaIT0_E
FN:148,_ZSt8_DestroyIP13tMaterialInfoS0_EvT_S2_RSaIT0_E
FNDA:38,_ZNSt12_Destroy_auxILb1EE9__destroyIP8triangleEEvT_S4_
FNDA:0,_ZNSt12_Destroy_auxILb1EE9__destroyIP9t3DObjectEEvT_S4_
FNDA:0,_ZNSt12_Destroy_auxILb1EE9__destroyIP13tMaterialInfoEEvT_S4_
FNDA:38,_ZSt8_DestroyIP8triangleEvT_S2_
FNDA:0,_ZSt8_DestroyIP9t3DObjectEvT_S2_
FNDA:0,_ZSt8_DestroyIP13tMaterialInfoEvT_S2_
FNDA:38,_ZSt8_DestroyIP8triangleS0_EvT_S2_RSaIT0_E
FNDA:0,_ZSt8_DestroyIP9t3DObjectS0_EvT_S2_RSaIT0_E
FNDA:0,_ZSt8_DestroyIP13tMaterialInfoS0_EvT_S2_RSaIT0_E
FNF:9
FNH:3
DA:112,38
DA:122,38
DA:126,38
DA:128,38
DA:148,38
DA:151,38
DA:152,38
LF:7
LH:7
end_of_record
SF:/usr/include/c++/5/bits/stl_iterator.h
FN:740,_ZN9__gnu_cxx17__normal_iteratorIP8triangleSt6vectorIS1_SaIS1_EEEC2ERKS2_
FN:753,_ZNK9__gnu_cxx17__normal_iteratorIP8triangleSt6vectorIS1_SaIS1_EEEdeEv
FN:805,_ZNK9__gnu_cxx17__normal_iteratorIP8triangleSt6vectorIS1_SaIS1_EEE4baseEv
FN:923,_ZN9__gnu_cxxmiIP8triangleSt6vectorIS1_SaIS1_EEEENS_17__normal_iteratorIT_T0_E15difference_typeERKS9_SC_
FNDA:72,_ZN9__gnu_cxx17__normal_iteratorIP8triangleSt6vectorIS1_SaIS1_EEEC2ERKS2_
FNDA:0,_ZNK9__gnu_cxx17__normal_iteratorIP8triangleSt6vectorIS1_SaIS1_EEEdeEv
FNDA:144,_ZNK9__gnu_cxx17__normal_iteratorIP8triangleSt6vectorIS1_SaIS1_EEE4baseEv
FNDA:36,_ZN9__gnu_cxxmiIP8triangleSt6vectorIS1_SaIS1_EEEENS_17__normal_iteratorIT_T0_E15difference_typeERKS9_SC_
FNF:4
FNH:3
DA:740,72
DA:741,72
DA:753,0
DA:754,0
DA:805,144
DA:806,144
DA:923,36
DA:926,36
LF:8
LH:6
end_of_record
SF:/usr/include/c++/5/bits/stl_iterator_base_types.h
FN:215,_ZNSt10_Iter_baseIP8triangleLb0EE7_S_baseES1_
FNDA:360,_ZNSt10_Iter_baseIP8triangleLb0EE7_S_baseES1_
FNF:1
FNH:1
DA:215,360
DA:216,360
LF:2
LH:2
end_of_record
SF:/usr/include/c++/5/bits/stl_uninitialized.h
FN:91,_ZNSt20__uninitialized_copyILb1EE13__uninit_copyIP8triangleS3_EET0_T_S5_S4_
FN:107,_ZSt18uninitialized_copyIP8triangleS1_ET0_T_S3_S2_
FN:279,_ZSt22__uninitialized_copy_aIP8triangleS1_S0_ET0_T_S3_S2_RSaIT1_E
FN:297,_ZSt34__uninitialized_move_if_noexcept_aIP8triangleS1_SaIS0_EET0_T_S4_S3_RT1_
FNDA:72,_ZNSt20__uninitialized_copyILb1EE13__uninit_copyIP8triangleS3_EET0_T_S5_S4_
FNDA:72,_ZSt18uninitialized_copyIP8triangleS1_ET0_T_S3_S2_
FNDA:72,_ZSt22__uninitialized_copy_aIP8triangleS1_S0_ET0_T_S3_S2_RSaIT1_E
FNDA:72,_ZSt34__uninitialized_move_if_noexcept_aIP8triangleS1_SaIS0_EET0_T_S4_S3_RT1_
FNF:4
FNH:4
DA:91,72
DA:93,72
DA:107,72
DA:115,72
DA:126,72
DA:279,72
DA:281,72
DA:297,72
DA:304,72
LF:9
LH:9
end_of_record
SF:/usr/include/c++/5/bits/stl_vector.h
FN:79,_ZNSt12_Vector_baseI9t3DObjectSaIS0_EE12_Vector_implD2Ev
FN:79,_ZNSt12_Vector_baseI8triangleSaIS0_EE12_Vector_implD2Ev
FN:79,_ZNSt12_Vector_baseI13tMaterialInfoSaIS0_EE12_Vector_implD2Ev
FN:86,_ZNSt12_Vector_baseI9t3DObjectSaIS0_EE12_Vector_implC2Ev
FN:86,_ZNSt12_Vector_baseI8triangleSaIS0_EE12_Vector_implC2Ev
FN:86,_ZNSt12_Vector_baseI13tMaterialInfoSaIS0_EE12_Vector_implC2Ev
FN:113,_ZNSt12_Vector_baseI9t3DObjectSaIS0_EE19_M_get_Tp_allocatorEv
FN:113,_ZNSt12_Vector_baseI8triangleSaIS0_EE19_M_get_Tp_allocatorEv
FN:113,_ZNSt12_Vector_baseI13tMaterialInfoSaIS0_EE19_M_get_Tp_allocatorEv
FN:117,_ZNKSt12_Vector_baseI8triangleSaIS0_EE19_M_get_Tp_allocatorEv
FN:124,_ZNSt12_Vector_baseI9t3DObjectSaIS0_EEC2Ev
FN:124,_ZNSt12_Vector_baseI8triangleSaIS0_EEC2Ev
FN:124,_ZNSt12_Vector_baseI13tMaterialInfoSaIS0_EEC2Ev
FN:159,_ZNSt12_Vector_baseI13tMaterialInfoSaIS0_EED2Ev
FN:159,_ZNSt12_Vector_baseI8triangleSaIS0_EED2Ev
FN:159,_ZNSt12_Vector_baseI9t3DObjectSaIS0_EED2Ev
FN:167,_ZNSt12_Vector_baseI8triangleSaIS0_EE11_M_allocateEm
FN:174,_ZNSt12_Vector_baseI9t3DObjectSaIS0_EE13_M_deallocateEPS0_m
FN:174,_ZNSt12_Vector_baseI13tMaterialInfoSaIS0_EE13_M_deallocateEPS0_m
FN:174,_ZNSt12_Vector_baseI8triangleSaIS0_EE13_M_deallocateEPS0_m
FN:253,_ZNSt6vectorI13tMaterialInfoSaIS0_EEC2Ev
FN:253,_ZNSt6vectorI8triangleSaIS0_EEC2Ev
FN:253,_ZNSt6vectorI9t3DObjectSaIS0_EEC2Ev
FN:423,_ZNSt6vectorI8triangleSaIS0_EED2Ev
FN:423,_ZNSt6vectorI13tMaterialInfoSaIS0_EED2Ev
FN:423,_ZNSt6vectorI9t3DObjectSaIS0_EED2Ev
FN:547,_ZNSt6vectorI8triangleSaIS0_EE5beginEv
FN:565,_ZNSt6vectorI8triangleSaIS0_EE3endEv
FN:654,_ZNKSt6vectorI13tMaterialInfoSaIS0_EE4sizeEv
FN:654,_ZNKSt6vectorI8triangleSaIS0_EE4sizeEv
FN:654,_ZNKSt6vectorI9t3DObjectSaIS0_EE4sizeEv
FN:659,_ZNKSt6vectorI8triangleSaIS0_EE8max_sizeEv
FN:779,_ZNSt6vectorI8triangleSaIS0_EEixEm
FN:779,_ZNSt6vectorI9t3DObjectSaIS0_EEixEm
FN:779,_ZNSt6vectorI13tMaterialInfoSaIS0_EEixEm
FN:913,_ZNSt6vectorI8triangleSaIS0_EE9push_backERKS0_
FN:1422,_ZNKSt6vectorI8triangleSaIS0_EE12_M_check_lenEmPKc
FNDA:2,_ZNSt12_Vector_baseI8triangleSaIS0_EE12_Vector_implD2Ev
FNDA:2,_ZNSt12_Vector_baseI9t3DObjectSaIS0_EE12_Vector_implD2Ev
FNDA:2,_ZNSt12_Vector_baseI13tMaterialInfoSaIS0_EE12_Vector_implD2Ev
FNDA:2,_ZNSt12_Vector_baseI8triangleSaIS0_EE12_Vector_implC2Ev
FNDA:2,_ZNSt12_Vector_baseI9t3DObjectSaIS0_EE12_Vector_implC2Ev
FNDA:2,_ZNSt12_Vector_baseI13tMaterialInfoSaIS0_EE12_Vector_implC2Ev
FNDA:110,_ZNSt12_Vector_baseI8triangleSaIS0_EE19_M_get_Tp_allocatorEv
FNDA:0,_ZNSt12_Vector_baseI9t3DObjectSaIS0_EE19_M_get_Tp_allocatorEv
FNDA:0,_ZNSt12_Vector_baseI13tMaterialInfoSaIS0_EE19_M_get_Tp_allocatorEv
FNDA:72,_ZNKSt12_Vector_baseI8triangleSaIS0_EE19_M_get_Tp_allocatorEv
FNDA:2,_ZNSt12_Vector_baseI8triangleSaIS0_EEC2Ev
FNDA:2,_ZNSt12_Vector_baseI9t3DObjectSaIS0_EEC2Ev
FNDA:2,_ZNSt12_Vector_baseI13tMaterialInfoSaIS0_EEC2Ev
FNDA:2,_ZNSt12_Vector_baseI8triangleSaIS0_EED2Ev
FNDA:2,_ZNSt12_Vector_baseI9t3DObjectSaIS0_EED2Ev
FNDA:2,_ZNSt12_Vector_baseI13tMaterialInfoSaIS0_EED2Ev
FNDA:36,_ZNSt12_Vector_baseI8triangleSaIS0_EE11_M_allocateEm
FNDA:0,_ZNSt12_Vector_baseI9t3DObjectSaIS0_EE13_M_deallocateEPS0_m
FNDA:0,_ZNSt12_Vector_baseI13tMaterialInfoSaIS0_EE13_M_deallocateEPS0_m
FNDA:38,_ZNSt12_Vector_baseI8triangleSaIS0_EE13_M_deallocateEPS0_m
FNDA:2,_ZNSt6vectorI8triangleSaIS0_EEC2Ev
FNDA:2,_ZNSt6vectorI9t3DObjectSaIS0_EEC2Ev
FNDA:2,_ZNSt6vectorI13tMaterialInfoSaIS0_EEC2Ev
FNDA:2,_ZNSt6vectorI8triangleSaIS0_EED2Ev
FNDA:2,_ZNSt6vectorI9t3DObjectSaIS0_EED2Ev
FNDA:2,_ZNSt6vectorI13tMaterialInfoSaIS0_EED2Ev
FNDA:36,_ZNSt6vectorI8triangleSaIS0_EE5beginEv
FNDA:36,_ZNSt6vectorI8triangleSaIS0_EE3endEv
FNDA:0,_ZNKSt6vectorI13tMaterialInfoSaIS0_EE4sizeEv
FNDA:0,_ZNKSt6vectorI9t3DObjectSaIS0_EE4sizeEv
FNDA:139048,_ZNKSt6vectorI8triangleSaIS0_EE4sizeEv
FNDA:72,_ZNKSt6vectorI8triangleSaIS0_EE8max_sizeEv
FNDA:2500236,_ZNSt6vectorI8triangleSaIS0_EEixEm
FNDA:0,_ZNSt6vectorI13tMaterialInfoSaIS0_EEixEm
FNDA:0,_ZNSt6vectorI9t3DObjectSaIS0_EEixEm
FNDA:138902,_ZNSt6vectorI8triangleSaIS0_EE9push_backERKS0_
FNDA:36,_ZNKSt6vectorI8triangleSaIS0_EE12_M_check_lenEmPKc
FNF:37
FNH:29
DA:79,6
DA:86,6
DA:87,6
DA:88,6
DA:113,110
DA:114,110
DA:117,72
DA:118,72
DA:124,6
DA:125,6
DA:159,6
DA:160,12
DA:161,18
DA:167,36
DA:170,36
DA:174,38
DA:177,38
DA:178,36
DA:179,38
DA:253,6
DA:257,6
DA:423,6
DA:424,6
DA:425,12
DA:547,36
DA:548,36
DA:565,36
DA:566,36
DA:654,139048
DA:655,139048
DA:659,72
DA:660,72
DA:779,2500236
DA:780,2500236
DA:913,138902
DA:915,138902
DA:917,138866
DA:919,138866
DA:925,36
DA:927,138902
DA:1422,36
DA:1424,36
DA:1425,0
DA:1427,36
DA:1428,36
LF:45
LH:44
end_of_record
SF:/usr/include/c++/5/bits/vector.tcc
FN:326,_ZNSt6vectorI8triangleSaIS0_EE13_M_insert_auxEN9__gnu_cxx17__normal_iteratorIPS0_S2_EERKS0_
FNDA:36,_ZNSt6vectorI8triangleSaIS0_EE13_M_insert_auxEN9__gnu_cxx17__normal_iteratorIPS0_S2_EERKS0_
FNF:1
FNH:1
DA:326,36
DA:330,36
DA:332,0
DA:333,0
DA:335,0
DA:337,0
DA:339,0
DA:343,0
DA:351,36
DA:352,36
DA:353,36
DA:354,36
DA:361,36
DA:368,36
DA:370,36
DA:372,36
DA:373,36
DA:375,36
DA:377,36
DA:379,36
DA:380,36
DA:382,0
DA:384,0
DA:385,0
DA:388,0
DA:389,0
DA:390,0
DA:392,36
DA:393,36
DA:394,72
DA:396,72
DA:397,36
DA:398,36
DA:399,36
DA:401,36
LF:35
LH:23
end_of_record
SF:/usr/include/c++/5/ext/alloc_traits.h
FN:181,_ZN9__gnu_cxx14__alloc_traitsISaI8triangleEE8allocateERS2_m
FN:184,_ZN9__gnu_cxx14__alloc_traitsISaI13tMaterialInfoEE10deallocateERS2_PS1_m
FN:184,_ZN9__gnu_cxx14__alloc_traitsISaI8triangleEE10deallocateERS2_PS1_m
FN:184,_ZN9__gnu_cxx14__alloc_traitsISaI9t3DObjectEE10deallocateERS2_PS1_m
FN:188,_ZN9__gnu_cxx14__alloc_traitsISaI8triangleEE9constructIS1_EEvRS2_PS1_RKT_
FN:191,_ZN9__gnu_cxx14__alloc_traitsISaI8triangleEE7destroyERS2_PS1_
FN:194,_ZN9__gnu_cxx14__alloc_traitsISaI8triangleEE8max_sizeERKS2_
FNDA:36,_ZN9__gnu_cxx14__alloc_traitsISaI8triangleEE8allocateERS2_m
FNDA:0,_ZN9__gnu_cxx14__alloc_traitsISaI9t3DObjectEE10deallocateERS2_PS1_m
FNDA:0,_ZN9__gnu_cxx14__alloc_traitsISaI13tMaterialInfoEE10deallocateERS2_PS1_m
FNDA:36,_ZN9__gnu_cxx14__alloc_traitsISaI8triangleEE10deallocateERS2_PS1_m
FNDA:138902,_ZN9__gnu_cxx14__alloc_traitsISaI8triangleEE9constructIS1_EEvRS2_PS1_RKT_
FNDA:0,_ZN9__gnu_cxx14__alloc_traitsISaI8triangleEE7destroyERS2_PS1_
FNDA:72,_ZN9__gnu_cxx14__alloc_traitsISaI8triangleEE8max_sizeERKS2_
FNF:7
FNH:4
DA:181,36
DA:182,36
DA:184,36
DA:185,36
DA:188,138902
DA:189,138902
DA:191,0
DA:192,0
DA:194,72
DA:195,72
LF:10
LH:8
end_of_record
SF:/usr/include/c++/5/ext/new_allocator.h
FN:79,_ZN9__gnu_cxx13new_allocatorI13tMaterialInfoEC2Ev
FN:79,_ZN9__gnu_cxx13new_allocatorI9t3DObjectEC2Ev
FN:79,_ZN9__gnu_cxx13new_allocatorI8triangleEC2Ev
FN:86,_ZN9__gnu_cxx13new_allocatorI9t3DObjectED2Ev
FN:86,_ZN9__gnu_cxx13new_allocatorI13tMaterialInfoED2Ev
FN:86,_ZN9__gnu_cxx13new_allocatorI8triangleED2Ev
FN:99,_ZN9__gnu_cxx13new_allocatorI8triangleE8allocateEmPKv
FN:109,_ZN9__gnu_cxx13new_allocatorI13tMaterialInfoE10deallocateEPS1_m
FN:109,_ZN9__gnu_cxx13new_allocatorI9t3DObjectE10deallocateEPS1_m
FN:109,_ZN9__gnu_cxx13new_allocatorI8triangleE10deallocateEPS1_m
FN:113,_ZNK9__gnu_cxx13new_allocatorI8triangleE8max_sizeEv
FN:129,_ZN9__gnu_cxx13new_allocatorI8triangleE9constructEPS1_RKS1_
FN:133,_ZN9__gnu_cxx13new_allocatorI8triangleE7destroyEPS1_
FNDA:2,_ZN9__gnu_cxx13new_allocatorI8triangleEC2Ev
FNDA:2,_ZN9__gnu_cxx13new_allocatorI9t3DObjectEC2Ev
FNDA:2,_ZN9__gnu_cxx13new_allocatorI13tMaterialInfoEC2Ev
FNDA:2,_ZN9__gnu_cxx13new_allocatorI8triangleED2Ev
FNDA:2,_ZN9__gnu_cxx13new_allocatorI9t3DObjectED2Ev
FNDA:2,_ZN9__gnu_cxx13new_allocatorI13tMaterialInfoED2Ev
FNDA:36,_ZN9__gnu_cxx13new_allocatorI8triangleE8allocateEmPKv
FNDA:0,_ZN9__gnu_cxx13new_allocatorI9t3DObjectE10deallocateEPS1_m
FNDA:0,_ZN9__gnu_cxx13new_allocatorI13tMaterialInfoE10deallocateEPS1_m
FNDA:36,_ZN9__gnu_cxx13new_allocatorI8triangleE10deallocateEPS1_m
FNDA:108,_ZNK9__gnu_cxx13new_allocatorI8triangleE8max_sizeEv
FNDA:138902,_ZN9__gnu_cxx13new_allocatorI8triangleE9constructEPS1_RKS1_
FNDA:0,_ZN9__gnu_cxx13new_allocatorI8triangleE7destroyEPS1_
FNF:13
FNH:10
DA:79,6
DA:86,6
DA:99,36
DA:101,36
DA:102,0
DA:104,36
DA:109,36
DA:110,36
DA:113,108
DA:114,108
DA:129,138902
DA:130,138902
DA:133,0
LF:13
LH:11
end_of_record
SF:/usr/include/c++/5/iostream
DA:74,2
LF:1
LH:1
end_of_record
SF:/usr/include/c++/5/new
FN:129,_ZnwmPv
FNDA:0,_ZnwmPv
FNF:1
FNH:0
DA:129,0
DA:130,0
LF:2
LH:0
end_of_record
SF:/disk2/graphdev/TinyGLRender/test3ds/Render3DRdc01/3DS.h
FN:66,_ZN8t3DModelC2Ev
FN:66,_ZN8t3DModelD2Ev
FNDA:2,_ZN8t3DModelD2Ev
FNDA:2,_ZN8t3DModelC2Ev
FNF:2
FNH:2
DA:66,4
LF:1
LH:1
end_of_record
SF:/disk2/graphdev/TinyGLRender/test3ds/Render3DRdc01/TyGL/x11imp.h
FN:40,_Z13tkSwapBuffersv
FN:45,_Z13glXMakeDrawOkPvii
FN:193,_Z7ui_loopiPPcPKc
FNDA:2,_Z13tkSwapBuffersv
FNDA:2,_Z13glXMakeDrawOkPvii
FNDA:2,_Z7ui_loopiPPcPKc
FNF:3
FNH:3
DA:40,2
DA:42,2
DA:43,2
DA:45,2
DA:48,2
DA:57,2
DA:66,2
DA:67,2
DA:73,2
DA:78,2
DA:79,2
DA:81,2
DA:82,2
DA:83,2
DA:86,2
DA:87,2
DA:88,0
DA:89,0
DA:95,2
DA:96,2
DA:98,2
DA:99,2
DA:100,2
DA:101,2
DA:104,2
DA:105,2
DA:107,2
DA:110,2
DA:193,2
DA:212,2
DA:219,2
DA:220,2
DA:241,2
DA:243,2
DA:244,2
DA:246,2
LF:36
LH:34
end_of_record
SF:/disk2/graphdev/TinyGLRender/test3ds/Render3DRdc01/c24bitmap.h
FN:472,_ZN9C24BitMapC2Ev
FN:482,_ZN9C24BitMapD2Ev
FN:513,_ZN9C24BitMap4LoadEPc
FNDA:0,_ZN9C24BitMapC2Ev
FNDA:0,_ZN9C24BitMapD2Ev
FNDA:2,_ZN9C24BitMap4LoadEPc
FNF:3
FNH:1
DA:472,0
DA:474,0
DA:475,0
DA:476,0
DA:477,0
DA:478,0
DA:479,0
DA:480,0
DA:482,0
DA:484,0
DA:485,0
DA:513,2
DA:515,2
DA:518,2
DA:520,2
DA:521,2
DA:525,2
DA:526,2
DA:528,2
DA:530,0
DA:531,0
DA:533,2
DA:534,2
DA:535,2
DA:536,2
DA:537,2
LF:26
LH:13
end_of_record
SF:/disk2/graphdev/TinyGLRender/test3ds/Render3DRdc01/main.cpp
FN:33,_Z13CreateTexturePjPci
FN:83,_Z11RenderScenev
FN:159,_Z7reshapeii
FN:181,_Z4initv
FN:218,_Z11drawPolygonPA3_f
FN:231,_Z12SurfSetColorfff
FN:254,_Z15StlShape_RenderRSt6vectorI8triangleSaIS0_EE
FN:286,_Z14Test_TRIANGLESv
FN:320,_Z9SetCamerav
FN:333,main
FN:455,_GLOBAL__sub_I__Z13tkSwapBuffersv
FN:455,_Z41__static_initialization_and_destruction_0ii
FNDA:2,_Z13CreateTexturePjPci
FNDA:2,_Z11RenderScenev
FNDA:4,_Z7reshapeii
FNDA:2,_Z4initv
FNDA:66,_Z11drawPolygonPA3_f
FNDA:8,_Z12SurfSetColorfff
FNDA:2,_Z15StlShape_RenderRSt6vectorI8triangleSaIS0_EE
FNDA:2,_Z14Test_TRIANGLESv
FNDA:2,_Z9SetCamerav
FNDA:2,main
FNDA:2,_GLOBAL__sub_I__Z13tkSwapBuffersv
FNDA:2,_Z41__static_initialization_and_destruction_0ii
FNF:12
FNH:12
DA:17,2
DA:18,2
DA:25,2
DA:33,2
DA:37,2
DA:38,0
DA:40,2
DA:43,2
DA:46,2
DA:48,2
DA:60,2
DA:61,2
DA:62,2
DA:63,2
DA:67,2
DA:69,4
DA:83,2
DA:96,4
DA:99,2
DA:102,2
DA:105,2
DA:108,2
DA:109,2
DA:110,2
DA:111,2
DA:115,0
DA:116,0
DA:119,2
DA:121,6374
DA:124,25488
DA:127,19116
DA:130,19116
DA:133,19116
DA:136,19116
DA:137,19116
DA:141,0
DA:143,0
DA:144,0
DA:147,19116
DA:151,2
DA:155,2
DA:157,2
DA:159,4
DA:161,4
DA:163,0
DA:166,4
DA:168,4
DA:169,4
DA:170,4
DA:172,4
DA:173,4
DA:174,4
DA:181,2
DA:184,2
DA:187,4
DA:190,2
DA:193,2
DA:197,2
DA:200,2
DA:201,2
DA:202,2
DA:204,2
DA:218,66
DA:221,66
DA:222,66
DA:224,330
DA:225,264
DA:226,66
DA:228,66
DA:231,8
DA:240,8
DA:242,8
DA:244,8
DA:245,8
DA:246,8
DA:247,8
DA:248,8
DA:250,8
DA:252,8
DA:254,2
DA:261,2
DA:262,138904
DA:265,555608
DA:268,416706
DA:270,833412
DA:271,416706
DA:272,833412
DA:281,2
DA:284,2
DA:286,2
DA:292,2
DA:302,2
DA:304,2
DA:306,2
DA:316,2
DA:319,2
DA:320,2
DA:322,2
DA:323,2
DA:325,2
DA:327,2
DA:328,2
DA:329,2
DA:330,2
DA:332,2
DA:333,2
DA:335,2
DA:342,2
DA:343,2
DA:346,2
DA:355,2
DA:356,2
DA:358,2
DA:362,2
DA:363,2
DA:364,2
DA:365,2
DA:366,2
DA:367,2
DA:368,2
DA:369,2
DA:370,2
DA:371,2
DA:376,2
DA:378,2
DA:379,2
DA:380,2
DA:381,2
DA:382,2
DA:383,2
DA:384,2
DA:386,2
DA:387,2
DA:390,2
DA:393,2
DA:394,2
DA:395,2
DA:396,2
DA:397,2
DA:398,2
DA:399,2
DA:401,2
DA:402,2
DA:405,2
DA:410,4
DA:412,4
DA:413,2
DA:415,2
DA:416,2
DA:417,2
DA:418,2
DA:419,22
DA:421,20
DA:425,20
DA:427,2
DA:428,2
DA:429,22
DA:431,20
DA:435,20
DA:437,2
DA:438,2
DA:440,22
DA:442,20
DA:446,20
DA:448,2
DA:449,2
DA:451,2
DA:452,2
DA:453,2
DA:454,2
DA:455,6
LF:171
LH:164
end_of_record
SF:/disk2/graphdev/TinyGLRender/test3ds/Render3DRdc01/readstl.h
FN:28,_Z7Add3DPt5vec3dS_
FN:37,_ZplRK5vec3dS1_
FN:55,_Z20read_binary_STL_fileNSt7__cxx1112basic_stringIcSt11char_traitsIcESaIcEEERSt6vectorI8triangleSaIS6_EERdSA_SA_SA_SA_SA_
FNDA:0,_Z7Add3DPt5vec3dS_
FNDA:0,_ZplRK5vec3dS1_
FNDA:2,_Z20read_binary_STL_fileNSt7__cxx1112basic_stringIcSt11char_traitsIcESaIcEEERSt6vectorI8triangleSaIS6_EERdSA_SA_SA_SA_SA_
FNF:3
FNH:1
DA:28,0
DA:31,0
DA:32,0
DA:33,0
DA:34,0
DA:37,0
DA:39,0
DA:55,2
DA:59,4
DA:62,4
DA:67,2
DA:71,2
DA:73,0
DA:74,0
DA:78,2
DA:82,2
DA:92,2
DA:93,2
DA:94,2
DA:99,138904
DA:102,138902
DA:103,138902
DA:104,138902
DA:107,138902
DA:108,138902
DA:109,138902
DA:112,138902
DA:113,138902
DA:114,138902
DA:117,138902
DA:118,138902
DA:119,138902
DA:122,138902
DA:125,138902
DA:126,138902
DA:127,138902
DA:128,138902
DA:129,138902
DA:130,138902
DA:133,138902
DA:134,138902
DA:135,138902
DA:136,138902
DA:137,138902
DA:138,138902
DA:141,138902
DA:142,138902
DA:143,138902
DA:144,138902
DA:145,138902
DA:146,138902
DA:149,138902
DA:153,2
DA:155,2
LF:54
LH:45
end_of_record
TN:
SF:/disk2/graphdev/TinyGLRender/test3ds/Render3DRdc01/TyGL/image_util.cpp
FN:7,_Z23gl_convertRGB_to_5R6G5BPtPhii
FN:21,_Z25gl_convertRGB_to_8A8R8G8BPjPhii
FN:44,_ZL11interpolateiiiii
FN:54,_Z14gl_resizeImagePhiiS_ii
FN:105,_Z27gl_resizeImageNoInterpolatePhiiS_ii
FNDA:0,_Z23gl_convertRGB_to_5R6G5BPtPhii
FNDA:0,_Z25gl_convertRGB_to_8A8R8G8BPjPhii
FNDA:0,_ZL11interpolateiiiii
FNDA:0,_Z14gl_resizeImagePhiiS_ii
FNDA:2,_Z27gl_resizeImageNoInterpolatePhiiS_ii
FNF:5
FNH:1
DA:7,0
DA:13,0
DA:14,0
DA:15,0
DA:16,0
DA:17,0
DA:19,0
DA:21,0
DA:27,0
DA:28,0
DA:29,0
DA:30,0
DA:31,0
DA:32,0
DA:33,0
DA:35,0
DA:44,0
DA:46,0
DA:54,0
DA:61,0
DA:62,0
DA:64,0
DA:65,0
DA:67,0
DA:68,0
DA:69,0
DA:70,0
DA:71,0
DA:72,0
DA:73,0
DA:74,0
DA:76,0
DA:77,0
DA:78,0
DA:79,0
DA:80,0
DA:81,0
DA:84,0
DA:85,0
DA:86,0
DA:87,0
DA:88,0
DA:89,0
DA:90,0
DA:94,0
DA:95,0
DA:97,0
DA:99,0
DA:105,2
DA:112,2
DA:113,2
DA:115,2
DA:116,2
DA:118,2
DA:119,514
DA:120,512
DA:121,131584
DA:122,131072
DA:123,131072
DA:124,131072
DA:126,131072
DA:127,131072
DA:128,131072
DA:130,131072
DA:131,131072
DA:133,512
DA:135,2
LF:67
LH:19
end_of_record
TN:
SF:/disk2/graphdev/TinyGLRender/test3ds/Render3DRdc01/TyGL/clip.cpp
FN:13,_Z24gl_transform_to_viewportP9GLContextP8GLVertex
FN:51,_ZL14gl_add_select1P9GLContextiii
FN:58,_Z13gl_draw_pointP9GLContextP8GLVertex
FN:82,_Z12gl_draw_lineP9GLContextP8GLVertexS2_
FN:118,_ZL9clip_xminP2V4S0_S0_
FN:120,_ZL9clip_xmaxP2V4S0_S0_
FN:122,_ZL9clip_yminP2V4S0_S0_
FN:124,_ZL9clip_ymaxP2V4S0_S0_
FN:126,_ZL9clip_zminP2V4S0_S0_
FN:128,_ZL9clip_zmaxP2V4S0_S0_
FN:137,_ZL9updateTmpP9GLContextP8GLVertexS2_S2_f
FN:163,_Z16gl_draw_triangleP9GLContextP8GLVertexS2_S2_
FN:214,_ZL21gl_draw_triangle_clipP9GLContextP8GLVertexS2_S2_i
FN:295,_Z23gl_draw_triangle_selectP9GLContextP8GLVertexS2_S2_
FN:305,_Z21gl_draw_triangle_fillP9GLContextP8GLVertexS2_S2_
FN:338,_Z21gl_draw_triangle_lineP9GLContextP8GLVertexS2_S2_
FN:347,_Z22gl_draw_triangle_pointP9GLContextP8GLVertexS2_S2_
FNDA:436276,_Z24gl_transform_to_viewportP9GLContextP8GLVertex
FNDA:0,_ZL14gl_add_select1P9GLContextiii
FNDA:0,_Z13gl_draw_pointP9GLContextP8GLVertex
FNDA:0,_Z12gl_draw_lineP9GLContextP8GLVertexS2_
FNDA:144,_ZL9clip_xminP2V4S0_S0_
FNDA:276,_ZL9clip_xmaxP2V4S0_S0_
FNDA:80,_ZL9clip_yminP2V4S0_S0_
FNDA:128,_ZL9clip_ymaxP2V4S0_S0_
FNDA:0,_ZL9clip_zminP2V4S0_S0_
FNDA:0,_ZL9clip_zmaxP2V4S0_S0_
FNDA:628,_ZL9updateTmpP9GLContextP8GLVertexS2_S2_f
FNDA:145632,_Z16gl_draw_triangleP9GLContextP8GLVertexS2_S2_
FNDA:540,_ZL21gl_draw_triangle_clipP9GLContextP8GLVertexS2_S2_i
FNDA:0,_Z23gl_draw_triangle_selectP9GLContextP8GLVertexS2_S2_
FNDA:135114,_Z21gl_draw_triangle_fillP9GLContextP8GLVertexS2_S2_
FNDA:0,_Z21gl_draw_triangle_lineP9GLContextP8GLVertexS2_S2_
FNDA:0,_Z22gl_draw_triangle_pointP9GLContextP8GLVertexS2_S2_
FNF:17
FNH:9
DA:13,436276
DA:18,436276
DA:19,436276
DA:20,436276
DA:21,436276
DA:22,436276
DA:23,436276
DA:24,436276
DA:26,436276
DA:27,436276
DA:28,436276
DA:29,436276
DA:30,436276
DA:31,436276
DA:32,436276
DA:35,0
DA:36,0
DA:37,0
DA:42,436276
DA:43,19116
DA:44,19116
DA:45,19116
DA:46,19116
DA:48,436276
DA:51,0
DA:54,0
DA:58,0
DA:61,0
DA:82,0
DA:85,0
DA:118,144
DA:120,276
DA:122,80
DA:124,128
DA:126,0
DA:128,0
DA:137,628
DA:140,628
DA:141,628
DA:142,628
DA:143,628
DA:145,0
DA:146,0
DA:147,0
DA:150,628
DA:151,0
DA:152,0
DA:155,628
DA:156,628
DA:157,340
DA:158,628
DA:163,145632
DA:169,145632
DA:170,145632
DA:171,145632
DA:173,145632
DA:176,145632
DA:178,145500
DA:179,145500
DA:181,155886
DA:183,135114
DA:184,135114
DA:187,135114
DA:189,0
DA:190,0
DA:191,0
DA:192,0
DA:193,0
DA:194,0
DA:196,0
DA:200,135114
DA:201,68602
DA:203,66512
DA:207,132
DA:208,132
DA:209,108
DA:214,540
DA:221,540
DA:222,540
DA:223,540
DA:225,540
DA:226,540
DA:227,224
DA:229,316
DA:231,318
DA:234,526
DA:235,106
DA:239,314
DA:246,0
DA:249,314
DA:250,314
DA:252,314
DA:255,118
DA:256,38
DA:257,36
DA:259,118
DA:260,118
DA:262,118
DA:263,118
DA:265,118
DA:266,118
DA:267,118
DA:268,118
DA:270,118
DA:271,118
DA:272,118
DA:273,118
DA:277,196
DA:278,116
DA:279,60
DA:281,196
DA:282,196
DA:284,196
DA:285,196
DA:287,196
DA:288,196
DA:289,196
DA:295,0
DA:298,0
DA:299,0
DA:305,135114
DA:325,135114
DA:329,6358
DA:330,6358
DA:331,128756
DA:332,128756
DA:334,135114
DA:338,0
DA:342,0
DA:347,0
DA:351,0
LF:131
LH:100
end_of_record
SF:/disk2/graphdev/TinyGLRender/test3ds/Render3DRdc01/TyGL/zgl.h
FN:360,_ZL11gl_clipcodeffff
FNDA:628,_ZL11gl_clipcodeffff
FNF:1
FNH:1
DA:360,628
DA:364,628
DA:365,1256
DA:366,1256
DA:367,1256
DA:368,1256
DA:369,628
DA:370,628
LF:8
LH:8
end_of_record
TN:
SF:/disk2/graphdev/TinyGLRender/test3ds/Render3DRdc01/TyGL/kh_project.cpp
FN:14,_ZL18__gluMakeIdentitydPd
FN:22,_ZL18__gluMakeIdentityfPf
FN:31,_Z10gluOrtho2Ddddd
FN:39,_Z13glMultMatrixdPKd
FN:79,_ZL9normalizePf
FN:91,_ZL5crossPfS_S_
FN:111,_Z12glTranslatedddd
FN:120,_Z9gluLookAtddddddddd
FN:161,_ZL19__gluMultMatrixVecdPKdS0_Pd
FN:179,_ZL18__gluInvertMatrixdPKdPd
FN:229,_ZL18__gluMultMatricesdPKdS0_Pd
FN:246,_Z10gluProjectdddPKdS0_PKiPdS3_S3_
FN:281,_Z12gluUnProjectdddPKdS0_PKiPdS3_S3_
FN:322,_Z13gluUnProject4ddddPKdS0_PKiddPdS3_S3_S3_
FN:362,_Z13gluPickMatrixddddPi
FNDA:0,_ZL18__gluMakeIdentitydPd
FNDA:2,_ZL18__gluMakeIdentityfPf
FNDA:0,_Z10gluOrtho2Ddddd
FNDA:0,_Z13glMultMatrixdPKd
FNDA:4,_ZL9normalizePf
FNDA:4,_ZL5crossPfS_S_
FNDA:2,_Z12glTranslatedddd
FNDA:2,_Z9gluLookAtddddddddd
FNDA:0,_ZL19__gluMultMatrixVecdPKdS0_Pd
FNDA:0,_ZL18__gluInvertMatrixdPKdPd
FNDA:0,_ZL18__gluMultMatricesdPKdS0_Pd
FNDA:0,_Z10gluProjectdddPKdS0_PKiPdS3_S3_
FNDA:0,_Z12gluUnProjectdddPKdS0_PKiPdS3_S3_
FNDA:0,_Z13gluUnProject4ddddPKdS0_PKiddPdS3_S3_S3_
FNDA:0,_Z13gluPickMatrixddddPi
FNF:15
FNH:5
DA:14,0
DA:16,0
DA:17,0
DA:18,0
DA:19,0
DA:20,0
DA:22,2
DA:24,2
DA:25,2
DA:26,2
DA:27,2
DA:28,2
DA:31,0
DA:34,0
DA:39,0
DA:43,0
DA:44,0
DA:45,0
DA:46,0
DA:79,4
DA:83,4
DA:84,4
DA:86,4
DA:87,4
DA:88,4
DA:91,4
DA:93,4
DA:94,4
DA:95,4
DA:96,4
DA:111,2
DA:114,2
DA:115,2
DA:120,2
DA:127,2
DA:128,2
DA:129,2
DA:131,2
DA:132,2
DA:133,2
DA:135,2
DA:138,2
DA:139,2
DA:142,2
DA:144,2
DA:145,2
DA:146,2
DA:147,2
DA:149,2
DA:150,2
DA:151,2
DA:153,2
DA:154,2
DA:155,2
DA:157,2
DA:158,2
DA:159,2
DA:161,0
DA:166,0
DA:167,0
DA:168,0
DA:169,0
DA:170,0
DA:171,0
DA:173,0
DA:179,0
DA:184,0
DA:185,0
DA:186,0
DA:187,0
DA:188,0
DA:189,0
DA:190,0
DA:191,0
DA:192,0
DA:193,0
DA:194,0
DA:195,0
DA:196,0
DA:197,0
DA:198,0
DA:199,0
DA:200,0
DA:201,0
DA:202,0
DA:203,0
DA:204,0
DA:205,0
DA:206,0
DA:207,0
DA:208,0
DA:209,0
DA:210,0
DA:211,0
DA:212,0
DA:213,0
DA:214,0
DA:215,0
DA:217,0
DA:218,0
DA:219,0
DA:221,0
DA:223,0
DA:224,0
DA:226,0
DA:229,0
DA:234,0
DA:235,0
DA:236,0
DA:237,0
DA:238,0
DA:239,0
DA:240,0
DA:243,0
DA:246,0
DA:255,0
DA:256,0
DA:257,0
DA:258,0
DA:259,0
DA:260,0
DA:261,0
DA:262,0
DA:263,0
DA:264,0
DA:266,0
DA:267,0
DA:268,0
DA:271,0
DA:272,0
DA:274,0
DA:275,0
DA:276,0
DA:277,0
DA:281,0
DA:291,0
DA:292,0
DA:294,0
DA:295,0
DA:296,0
DA:297,0
DA:300,0
DA:301,0
DA:304,0
DA:305,0
DA:306,0
DA:308,0
DA:309,0
DA:310,0
DA:311,0
DA:312,0
DA:313,0
DA:314,0
DA:315,0
DA:316,0
DA:322,0
DA:334,0
DA:335,0
DA:337,0
DA:338,0
DA:339,0
DA:340,0
DA:343,0
DA:344,0
DA:345,0
DA:348,0
DA:349,0
DA:350,0
DA:352,0
DA:353,0
DA:354,0
DA:355,0
DA:356,0
DA:357,0
DA:358,0
DA:362,0
DA:365,0
DA:366,0
DA:370,0
DA:371,0
DA:372,0
LF:181
LH:44
end_of_record
TN:
SF:/disk2/graphdev/TinyGLRender/test3ds/Render3DRdc01/TyGL/glu.cpp
FN:7,_Z9drawTorusfifi
FN:39,_ZL8normal3ffff
FN:52,_Z14gluPerspectivedddd
FN:66,_Z13gluNewQuadricv
FN:71,_Z19gluQuadricDrawStyleP13GLUquadricObji
FN:75,_Z11gluCylinderP13GLUquadricObjdddii
FN:130,_Z7gluDiskP13GLUquadricObjddii
FN:173,_Z9gluSphereP13GLUquadricObjfii
FNDA:0,_Z9drawTorusfifi
FNDA:0,_ZL8normal3ffff
FNDA:6,_Z14gluPerspectivedddd
FNDA:0,_Z13gluNewQuadricv
FNDA:0,_Z19gluQuadricDrawStyleP13GLUquadricObji
FNDA:0,_Z11gluCylinderP13GLUquadricObjdddii
FNDA:0,_Z7gluDiskP13GLUquadricObjddii
FNDA:0,_Z9gluSphereP13GLUquadricObjfii
FNF:8
FNH:1
DA:7,0
DA:14,0
DA:15,0
DA:17,0
DA:18,0
DA:19,0
DA:20,0
DA:21,0
DA:22,0
DA:24,0
DA:25,0
DA:26,0
DA:27,0
DA:29,0
DA:30,0
DA:31,0
DA:32,0
DA:35,0
DA:37,0
DA:39,0
DA:43,0
DA:44,0
DA:45,0
DA:46,0
DA:47,0
DA:49,0
DA:50,0
DA:52,6
DA:57,6
DA:58,6
DA:60,6
DA:61,6
DA:63,6
DA:64,6
DA:66,0
DA:68,0
DA:71,0
DA:73,0
DA:75,0
DA:82,0
DA:83,0
DA:84,0
DA:86,0
DA:88,0
DA:89,0
DA:90,0
DA:91,0
DA:93,0
DA:94,0
DA:95,0
DA:96,0
DA:97,0
DA:98,0
DA:99,0
DA:100,0
DA:101,0
DA:102,0
DA:103,0
DA:104,0
DA:105,0
DA:106,0
DA:107,0
DA:108,0
DA:109,0
DA:112,0
DA:113,0
DA:114,0
DA:115,0
DA:116,0
DA:117,0
DA:119,0
DA:120,0
DA:121,0
DA:123,0
DA:124,0
DA:126,0
DA:130,0
DA:141,0
DA:143,0
DA:144,0
DA:148,0
DA:150,0
DA:151,0
DA:152,0
DA:153,0
DA:154,0
DA:155,0
DA:156,0
DA:157,0
DA:158,0
DA:159,0
DA:160,0
DA:161,0
DA:163,0
DA:164,0
DA:167,0
DA:173,0
DA:183,0
DA:184,0
DA:186,0
DA:187,0
DA:190,0
DA:191,0
DA:192,0
DA:193,0
DA:194,0
DA:195,0
DA:196,0
DA:197,0
DA:198,0
DA:199,0
DA:200,0
DA:202,0
DA:205,0
DA:206,0
DA:207,0
DA:209,0
DA:210,0
DA:218,0
DA:219,0
DA:220,0
DA:221,0
DA:222,0
DA:223,0
DA:224,0
DA:225,0
DA:226,0
DA:227,0
DA:228,0
DA:229,0
DA:230,0
DA:231,0
DA:232,0
DA:233,0
DA:234,0
DA:235,0
DA:236,0
DA:238,0
DA:239,0
DA:243,0
DA:244,0
DA:245,0
DA:246,0
DA:247,0
DA:248,0
DA:249,0
DA:250,0
DA:251,0
DA:252,0
DA:253,0
DA:254,0
DA:255,0
DA:256,0
DA:257,0
DA:258,0
DA:260,0
DA:261,0
LF:157
LH:7
end_of_record
TN:
SF:/disk2/graphdev/TinyGLRender/test3ds/Render3DRdc01/TyGL/misc.cpp
FN:4,_Z12glopViewportP9GLContextP7GLParam
FN:45,_Z17glopEnableDisableP9GLContextP7GLParam
FN:93,_Z14glopShadeModelP9GLContextP7GLParam
FN:99,_Z12glopCullFaceP9GLContextP7GLParam
FN:105,_Z13glopFrontFaceP9GLContextP7GLParam
FN:111,_Z15glopPolygonModeP9GLContextP7GLParam
FN:132,_Z8glopHintP9GLContextP7GLParam
FN:143,_Z17glopPolygonOffsetP9GLContextP7GLParam
FNDA:6,_Z12glopViewportP9GLContextP7GLParam
FNDA:26,_Z17glopEnableDisableP9GLContextP7GLParam
FNDA:0,_Z14glopShadeModelP9GLContextP7GLParam
FNDA:0,_Z12glopCullFaceP9GLContextP7GLParam
FNDA:0,_Z13glopFrontFaceP9GLContextP7GLParam
FNDA:0,_Z15glopPolygonModeP9GLContextP7GLParam
FNDA:0,_Z8glopHintP9GLContextP7GLParam
FNDA:0,_Z17glopPolygonOffsetP9GLContextP7GLParam
FNF:8
FNH:2
DA:4,6
DA:8,6
DA:9,6
DA:10,6
DA:11,6
DA:15,12
DA:16,12
DA:17,10
DA:18,4
DA:20,2
DA:21,2
DA:23,2
DA:24,0
DA:25,0
DA:28,2
DA:29,2
DA:30,2
DA:31,0
DA:35,2
DA:36,2
DA:37,2
DA:38,2
DA:39,2
DA:41,2
DA:43,6
DA:45,26
DA:47,26
DA:48,26
DA:50,26
DA:52,0
DA:53,0
DA:55,4
DA:56,4
DA:58,4
DA:59,4
DA:61,6
DA:62,6
DA:64,0
DA:65,0
DA:67,2
DA:68,2
DA:70,0
DA:71,0
DA:72,0
DA:74,0
DA:75,0
DA:76,0
DA:78,0
DA:79,0
DA:80,0
DA:82,10
DA:83,10
DA:89,10
DA:91,26
DA:93,0
DA:95,0
DA:96,0
DA:97,0
DA:99,0
DA:101,0
DA:102,0
DA:103,0
DA:105,0
DA:107,0
DA:108,0
DA:109,0
DA:111,0
DA:113,0
DA:114,0
DA:116,0
DA:118,0
DA:119,0
DA:121,0
DA:122,0
DA:124,0
DA:125,0
DA:126,0
DA:128,0
DA:130,0
DA:132,0
DA:140,0
DA:143,0
DA:145,0
DA:146,0
DA:147,0
LF:85
LH:38
end_of_record
TN:
SF:/disk2/graphdev/TinyGLRender/test3ds/Render3DRdc01/TyGL/ztriangle.cpp
FN:12,_Z10PUT_PIXELKiRjS_PhPtS_S_S_RiS2_S2_S2_
FN:30,_Z21ZB_fillTriangleSmoothP7ZBufferP12ZBufferPointS2_S2_
FN:297,_Z13ZB_setTextureP7ZBufferPh
FN:311,_Z13PUT_PIXEL_TEXiPhRjS0_S_PtS0_S0_RiS2_S2_
FN:331,_Z33ZB_fillTriangleMappingPerspectiveP7ZBufferP12ZBufferPointS2_S2_
FNDA:2379552,_Z10PUT_PIXELKiRjS_PhPtS_S_S_RiS2_S2_S2_
FNDA:128756,_Z21ZB_fillTriangleSmoothP7ZBufferP12ZBufferPointS2_S2_
FNDA:6358,_Z13ZB_setTextureP7ZBufferPh
FNDA:299556,_Z13PUT_PIXEL_TEXiPhRjS0_S_PtS0_S0_RiS2_S2_
FNDA:6358,_Z33ZB_fillTriangleMappingPerspectiveP7ZBufferP12ZBufferPointS2_S2_
FNF:5
FNH:5
DA:12,2379552
DA:17,2379552
DA:18,2379552
DA:19,1611344
DA:20,1611344
DA:21,1611344
DA:22,1611344
DA:24,2379552
DA:25,2379552
DA:26,2379552
DA:27,2379552
DA:29,2379552
DA:30,128756
DA:63,128756
DA:64,56694
DA:65,56694
DA:66,56694
DA:68,128756
DA:69,36872
DA:70,36872
DA:71,36872
DA:72,36872
DA:73,91884
DA:74,35568
DA:75,35568
DA:76,35568
DA:81,128756
DA:82,128756
DA:84,128756
DA:85,128756
DA:87,128756
DA:88,128756
DA:89,0
DA:90,128756
DA:92,128756
DA:93,128756
DA:94,128756
DA:95,128756
DA:98,128756
DA:99,128756
DA:100,128756
DA:101,128756
DA:103,128756
DA:104,128756
DA:105,128756
DA:106,128756
DA:108,128756
DA:109,128756
DA:110,128756
DA:111,128756
DA:113,128756
DA:114,128756
DA:115,128756
DA:116,128756
DA:124,128756
DA:125,128756
DA:129,386268
DA:130,257512
DA:131,128756
DA:132,63194
DA:133,63194
DA:134,63194
DA:135,63194
DA:136,63194
DA:137,63194
DA:139,65562
DA:140,65562
DA:141,65562
DA:142,65562
DA:143,65562
DA:144,65562
DA:146,128756
DA:149,128756
DA:150,63194
DA:151,63194
DA:152,63194
DA:153,63194
DA:155,65562
DA:156,65562
DA:157,65562
DA:158,65562
DA:160,128756
DA:165,257512
DA:166,194318
DA:167,194318
DA:168,194318
DA:169,152776
DA:171,41542
DA:172,194318
DA:173,194318
DA:174,194318
DA:175,194318
DA:176,194318
DA:179,194318
DA:180,194318
DA:181,194318
DA:183,194318
DA:184,194318
DA:185,194318
DA:187,194318
DA:188,194318
DA:189,194318
DA:191,194318
DA:192,194318
DA:193,194318
DA:200,257512
DA:201,191950
DA:202,191950
DA:203,191950
DA:204,152850
DA:206,39100
DA:207,191950
DA:212,1489340
DA:213,615914
DA:223,615914
DA:224,615914
DA:226,615914
DA:227,615914
DA:229,615914
DA:230,615914
DA:231,615914
DA:244,5375018
DA:245,2379552
DA:247,2379552
DA:249,2379552
DA:250,2379552
DA:254,615914
DA:255,615914
DA:256,215566
DA:257,215566
DA:259,215566
DA:261,215566
DA:262,215566
DA:263,215566
DA:267,400348
DA:269,400348
DA:271,400348
DA:272,400348
DA:273,400348
DA:279,615914
DA:282,615914
DA:283,615914
DA:297,6358
DA:299,6358
DA:300,6358
DA:311,299556
DA:317,299556
DA:318,299556
DA:319,296640
DA:320,296640
DA:321,296640
DA:322,296640
DA:323,296640
DA:325,299556
DA:326,299556
DA:327,299556
DA:328,299556
DA:331,6358
DA:376,6358
DA:377,2698
DA:378,2698
DA:379,2698
DA:381,6358
DA:382,3066
DA:383,3066
DA:384,3066
DA:385,3066
DA:386,3292
DA:387,172
DA:388,172
DA:389,172
DA:394,6358
DA:395,6358
DA:397,6358
DA:398,6358
DA:400,6358
DA:401,6358
DA:402,0
DA:403,6358
DA:405,6358
DA:406,6358
DA:407,6358
DA:408,6358
DA:411,6358
DA:412,6358
DA:413,6358
DA:414,6358
DA:422,6358
DA:423,6358
DA:424,6358
DA:425,6358
DA:426,6358
DA:427,6358
DA:428,6358
DA:429,6358
DA:430,6358
DA:432,6358
DA:433,6358
DA:434,6358
DA:435,6358
DA:437,6358
DA:438,6358
DA:439,6358
DA:440,6358
DA:446,6358
DA:447,6358
DA:452,6358
DA:453,6358
DA:454,6358
DA:455,6358
DA:456,6358
DA:461,19074
DA:462,12716
DA:463,6358
DA:464,2754
DA:465,2754
DA:466,2754
DA:467,2754
DA:468,2754
DA:469,2754
DA:471,3604
DA:472,3604
DA:473,3604
DA:474,3604
DA:475,3604
DA:476,3604
DA:478,6358
DA:481,6358
DA:482,2754
DA:483,2754
DA:484,2754
DA:485,2754
DA:487,3604
DA:488,3604
DA:489,3604
DA:490,3604
DA:492,6358
DA:497,12716
DA:498,9962
DA:499,9962
DA:500,9962
DA:501,8998
DA:503,964
DA:504,9962
DA:505,9962
DA:506,9962
DA:507,9962
DA:508,9962
DA:511,9962
DA:512,9962
DA:513,9962
DA:517,9962
DA:518,9962
DA:519,9962
DA:521,9962
DA:522,9962
DA:523,9962
DA:529,12716
DA:530,9112
DA:531,9112
DA:532,9112
DA:533,9036
DA:535,76
DA:536,9112
DA:541,146936
DA:542,67110
DA:550,67110
DA:551,67110
DA:552,67110
DA:553,67110
DA:554,67110
DA:555,67110
DA:556,67110
DA:557,67110
DA:558,96074
DA:561,14482
DA:562,14482
DA:563,14482
DA:564,14482
DA:565,14482
DA:566,14482
DA:567,14482
DA:568,14482
DA:570,14482
DA:571,14482
DA:572,14482
DA:573,14482
DA:574,14482
DA:575,14482
DA:576,14482
DA:577,14482
DA:578,14482
DA:579,14482
DA:580,14482
DA:581,14482
DA:582,14482
DA:586,67110
DA:587,67110
DA:588,67110
DA:589,67110
DA:590,67110
DA:591,67110
DA:593,434510
DA:594,183700
DA:595,183700
DA:596,183700
DA:597,183700
DA:602,67110
DA:603,67110
DA:604,33598
DA:605,33598
DA:607,33598
DA:611,33598
DA:612,33598
DA:615,33512
DA:617,33512
DA:621,33512
DA:622,33512
DA:627,67110
DA:630,67110
DA:631,67110
LF:321
LH:319
end_of_record
TN:
SF:/disk2/graphdev/TinyGLRender/test3ds/Render3DRdc01/TyGL/light.cpp
FN:4,_Z12glopMaterialP9GLContextP7GLParam
FN:59,_Z17glopColorMaterialP9GLContextP7GLParam
FN:68,_Z9glopLightP9GLContextP7GLParam
FN:141,_Z14glopLightModelP9GLContextP7GLParam
FN:166,_ZL6clampffff
FN:173,_Z23gl_enable_disable_lightP9GLContextii
FN:190,_Z15gl_shade_vertexP9GLContextP8GLVertex
FNDA:68,_Z12glopMaterialP9GLContextP7GLParam
FNDA:0,_Z17glopColorMaterialP9GLContextP7GLParam
FNDA:12,_Z9glopLightP9GLContextP7GLParam
FNDA:0,_Z14glopLightModelP9GLContextP7GLParam
FNDA:1744368,_ZL6clampffff
FNDA:10,_Z23gl_enable_disable_lightP9GLContextii
FNDA:436092,_Z15gl_shade_vertexP9GLContextP8GLVertex
FNF:7
FNH:5
DA:4,68
DA:6,68
DA:7,68
DA:10,68
DA:11,68
DA:12,68
DA:13,68
DA:14,68
DA:19,68
DA:20,34
DA:21,34
DA:22,34
DA:24,68
DA:25,34
DA:27,68
DA:29,0
DA:30,0
DA:31,0
DA:33,80
DA:34,64
DA:35,16
DA:37,80
DA:38,64
DA:39,16
DA:41,80
DA:42,64
DA:43,16
DA:45,16
DA:46,16
DA:47,16
DA:49,20
DA:50,16
DA:51,20
DA:52,16
DA:53,4
DA:55,0
DA:57,68
DA:59,0
DA:61,0
DA:62,0
DA:64,0
DA:65,0
DA:66,0
DA:68,12
DA:70,12
DA:71,12
DA:76,12
DA:78,12
DA:80,12
DA:82,12
DA:84,0
DA:85,0
DA:87,0
DA:88,0
DA:90,0
DA:91,0
DA:95,6
DA:97,6
DA:99,6
DA:100,0
DA:101,0
DA:102,0
DA:104,0
DA:107,6
DA:109,24
DA:110,18
DA:111,18
DA:113,6
DA:114,6
DA:116,0
DA:117,0
DA:120,0
DA:121,0
DA:122,0
DA:123,0
DA:125,0
DA:127,0
DA:128,0
DA:130,0
DA:131,0
DA:133,0
DA:134,0
DA:136,0
DA:138,12
DA:141,0
DA:143,0
DA:144,0
DA:147,0
DA:149,0
DA:150,0
DA:151,0
DA:153,0
DA:154,0
DA:156,0
DA:157,0
DA:159,0
DA:161,0
DA:163,0
DA:166,1744368
DA:168,1744368
DA:169,1744368
DA:170,1723386
DA:173,10
DA:175,10
DA:176,10
DA:177,8
DA:178,8
DA:179,8
DA:180,8
DA:181,2
DA:182,0
DA:183,0
DA:184,0
DA:185,0
DA:187,10
DA:190,436092
DA:197,436092
DA:199,436092
DA:201,436092
DA:202,436092
DA:203,436092
DA:205,436092
DA:206,436092
DA:207,436092
DA:208,436092
DA:210,2123112
DA:214,1687020
DA:215,1687020
DA:216,1687020
DA:218,1687020
DA:220,436092
DA:221,436092
DA:222,436092
DA:223,436092
DA:226,1250928
DA:227,1250928
DA:228,1250928
DA:229,1250928
DA:230,1250928
DA:231,1250928
DA:232,1250928
DA:233,1250928
DA:234,1250928
DA:236,2501856
DA:237,2501856
DA:239,1687020
DA:240,1687020
DA:241,1687020
DA:243,837192
DA:244,837192
DA:245,837192
DA:248,837192
DA:249,0
DA:250,0
DA:251,0
DA:252,0
DA:253,0
DA:255,0
DA:258,0
DA:259,0
DA:266,837192
DA:268,0
DA:269,0
DA:270,0
DA:271,0
DA:272,0
DA:273,0
DA:274,0
DA:276,837192
DA:277,837192
DA:278,837192
DA:280,837192
DA:281,837192
DA:282,837192
DA:285,774120
DA:286,774120
DA:287,774120
DA:293,774120
DA:294,774120
DA:295,774120
DA:296,774120
DA:297,774120
DA:298,774120
DA:299,774120
DA:303,1687020
DA:304,1687020
DA:305,1687020
DA:308,436092
DA:309,436092
DA:310,436092
DA:311,436092
DA:312,436092
LF:192
LH:125
end_of_record
TN:
SF:/disk2/graphdev/TinyGLRender/test3ds/Render3DRdc01/TyGL/texture.cpp
FN:8,_ZL12find_textureP9GLContexti
FN:20,_ZL12free_textureP9GLContexti
FN:44,_Z13alloc_textureP9GLContexti
FN:63,_Z14glInitTexturesP9GLContext
FN:71,_Z13glGenTexturesiPj
FN:92,_Z16glDeleteTexturesiPKj
FN:110,_Z15glopBindTextureP9GLContextP7GLParam
FN:125,_Z14glopTexImage2DP9GLContextP7GLParam
FN:185,_Z10glopTexEnvP9GLContextP7GLParam
FN:202,_Z16glopTexParameterP9GLContextP7GLParam
FN:221,_Z14glopPixelStoreP9GLContextP7GLParam
FNDA:6,_ZL12find_textureP9GLContexti
FNDA:0,_ZL12free_textureP9GLContexti
FNDA:4,_Z13alloc_textureP9GLContexti
FNDA:2,_Z14glInitTexturesP9GLContext
FNDA:2,_Z13glGenTexturesiPj
FNDA:0,_Z16glDeleteTexturesiPKj
FNDA:4,_Z15glopBindTextureP9GLContextP7GLParam
FNDA:2,_Z14glopTexImage2DP9GLContextP7GLParam
FNDA:0,_Z10glopTexEnvP9GLContextP7GLParam
FNDA:8,_Z16glopTexParameterP9GLContextP7GLParam
FNDA:2,_Z14glopPixelStoreP9GLContextP7GLParam
FNF:11
FNH:8
DA:8,6
DA:12,6
DA:13,6
DA:14,4
DA:15,0
DA:17,2
DA:20,0
DA:26,0
DA:27,0
DA:28,0
DA:29,0
DA:30,0
DA:32,0
DA:34,0
DA:36,0
DA:37,0
DA:38,0
DA:41,0
DA:42,0
DA:44,4
DA:48,4
DA:50,4
DA:52,4
DA:53,4
DA:54,4
DA:55,4
DA:57,4
DA:59,4
DA:63,2
DA:67,2
DA:68,2
DA:69,2
DA:71,2
DA:73,2
DA:77,2
DA:78,514
DA:79,512
DA:80,516
DA:81,2
DA:82,2
DA:86,4
DA:87,2
DA:89,2
DA:92,0
DA:94,0
DA:98,0
DA:99,0
DA:100,0
DA:101,0
DA:102,0
DA:104,0
DA:107,0
DA:110,4
DA:112,4
DA:113,4
DA:116,4
DA:118,4
DA:119,4
DA:120,2
DA:122,4
DA:123,4
DA:125,2
DA:127,2
DA:128,2
DA:129,2
DA:130,2
DA:131,2
DA:132,2
DA:133,2
DA:134,2
DA:135,2
DA:140,2
DA:141,2
DA:142,2
DA:143,0
DA:146,2
DA:147,2
DA:148,2
DA:150,2
DA:151,2
DA:152,2
DA:153,2
DA:155,0
DA:158,2
DA:159,2
DA:160,2
DA:161,2
DA:163,2
DA:164,2
DA:165,2
DA:180,2
DA:181,2
DA:185,0
DA:187,0
DA:188,0
DA:189,0
DA:191,0
DA:193,0
DA:196,0
DA:198,0
DA:199,0
DA:202,8
DA:204,8
DA:205,8
DA:206,8
DA:208,8
DA:210,0
DA:213,8
DA:216,4
DA:217,4
DA:219,8
DA:221,2
DA:223,2
DA:224,2
DA:226,2
DA:228,0
DA:230,2
LF:117
LH:81
end_of_record
TN:
SF:/disk2/graphdev/TinyGLRender/test3ds/Render3DRdc01/TyGL/init.cpp
FN:6,_Z15initSharedStateP9GLContext
FN:16,_Z14endSharedStateP9GLContext
FN:30,_Z6glInitPv
FN:184,_Z7glClosev
FNDA:2,_Z15initSharedStateP9GLContext
FNDA:2,_Z14endSharedStateP9GLContext
FNDA:2,_Z6glInitPv
FNDA:2,_Z7glClosev
FNF:4
FNH:4
DA:6,2
DA:8,2
DA:9,2
DA:11,2
DA:13,2
DA:14,2
DA:16,2
DA:18,2
DA:21,2
DA:24,2
DA:26,2
DA:27,2
DA:30,2
DA:32,2
DA:37,2
DA:38,2
DA:40,2
DA:43,2
DA:44,2
DA:47,2
DA:48,2
DA:49,2
DA:50,2
DA:51,2
DA:52,2
DA:55,2
DA:59,2
DA:60,2
DA:61,2
DA:63,2
DA:66,34
DA:67,32
DA:68,32
DA:69,32
DA:70,32
DA:71,32
DA:72,32
DA:73,32
DA:74,32
DA:75,32
DA:76,32
DA:77,32
DA:78,32
DA:79,32
DA:80,32
DA:82,2
DA:83,2
DA:84,2
DA:85,2
DA:86,2
DA:89,6
DA:90,4
DA:91,4
DA:92,4
DA:93,4
DA:94,4
DA:95,4
DA:97,2
DA:98,2
DA:99,2
DA:102,2
DA:105,2
DA:106,2
DA:107,2
DA:108,2
DA:109,2
DA:110,2
DA:111,2
DA:113,2
DA:114,2
DA:115,2
DA:116,2
DA:118,2
DA:120,2
DA:121,2
DA:122,2
DA:123,2
DA:125,2
DA:126,2
DA:128,2
DA:129,2
DA:130,2
DA:131,2
DA:134,2
DA:135,2
DA:136,2
DA:137,2
DA:138,2
DA:141,2
DA:142,2
DA:143,2
DA:146,2
DA:148,2
DA:149,2
DA:150,2
DA:152,8
DA:153,6
DA:154,6
DA:157,2
DA:158,2
DA:159,2
DA:160,2
DA:161,2
DA:162,2
DA:164,2
DA:167,2
DA:170,2
DA:173,2
DA:176,2
DA:177,2
DA:178,2
DA:181,2
DA:182,2
DA:184,2
DA:186,2
DA:187,2
DA:188,2
DA:189,2
LF:118
LH:118
end_of_record
TN:
SF:/disk2/graphdev/TinyGLRender/test3ds/Render3DRdc01/TyGL/clear.cpp
FN:4,_Z14glopClearColorP9GLContextP7GLParam
FN:11,_Z14glopClearDepthP9GLContextP7GLParam
FN:17,_Z9glopClearP9GLContextP7GLParam
FNDA:0,_Z14glopClearColorP9GLContextP7GLParam
FNDA:0,_Z14glopClearDepthP9GLContextP7GLParam
FNDA:0,_Z9glopClearP9GLContextP7GLParam
FNF:3
FNH:0
DA:4,0
DA:6,0
DA:7,0
DA:8,0
DA:9,0
DA:10,0
DA:11,0
DA:13,0
DA:14,0
DA:17,0
DA:19,0
DA:20,0
DA:21,0
DA:22,0
DA:23,0
DA:27,0
DA:28,0
DA:29,0
LF:18
LH:0
end_of_record
TN:
SF:/disk2/graphdev/TinyGLRender/test3ds/Render3DRdc01/TyGL/error.cpp
FN:4,_Z14gl_fatal_errorPcz
FNDA:0,_Z14gl_fatal_errorPcz
FNF:1
FNH:0
DA:4,0
DA:8,0
DA:10,0
DA:11,0
DA:12,0
DA:13,0
LF:6
LH:0
end_of_record
TN:
SF:/disk2/graphdev/TinyGLRender/test3ds/Render3DRdc01/TyGL/zmath.cpp
FN:12,_Z8gl_M4_IdP2M4
FN:20,_Z10gl_M4_IsIdP2M4
FN:32,_Z9gl_M4_MulP2M4S0_S0_
FN:45,_Z13gl_M4_MulLeftP2M4S0_
FN:63,_Z10gl_M4_MoveP2M4S0_
FN:68,_Z9gl_MoveV3P2V3S0_
FN:74,_Z10gl_MulM4V3P2V3P2M4S0_
FN:81,_Z10gl_MulM3V3P2V3P2M4S0_
FN:88,_Z11gl_M4_MulV4P2V4P2M4S0_
FN:97,_Z15gl_M4_TransposeP2M4S0_
FN:121,_Z14gl_M4_InvOrthoP2M4S_
FN:138,_Z10Matrix_InvPfS_i
FN:198,_Z9gl_M4_InvP2M4S0_
FN:206,_Z12gl_M4_RotateP2M4fi
FN:221,_Z9gl_M3_InvP2M3S0_
FN:245,_Z10gl_V3_NormP2V3
FN:256,_Z9gl_V3_Newfff
FN:265,_Z9gl_V4_Newffff
FNDA:16,_Z8gl_M4_IdP2M4
FNDA:4,_Z10gl_M4_IsIdP2M4
FNDA:0,_Z9gl_M4_MulP2M4S0_S0_
FNDA:8,_Z13gl_M4_MulLeftP2M4S0_
FNDA:0,_Z10gl_M4_MoveP2M4S0_
FNDA:0,_Z9gl_MoveV3P2V3S0_
FNDA:0,_Z10gl_MulM4V3P2V3P2M4S0_
FNDA:0,_Z10gl_MulM3V3P2V3P2M4S0_
FNDA:6,_Z11gl_M4_MulV4P2V4P2M4S0_
FNDA:4,_Z15gl_M4_TransposeP2M4S0_
FNDA:0,_Z14gl_M4_InvOrthoP2M4S_
FNDA:4,_Z10Matrix_InvPfS_i
FNDA:4,_Z9gl_M4_InvP2M4S0_
FNDA:0,_Z12gl_M4_RotateP2M4fi
FNDA:0,_Z9gl_M3_InvP2M3S0_
FNDA:6,_Z10gl_V3_NormP2V3
FNDA:96,_Z9gl_V3_Newfff
FNDA:146,_Z9gl_V4_Newffff
FNF:18
FNH:10
DA:12,16
DA:15,80
DA:16,320
DA:17,256
DA:18,16
DA:20,4
DA:23,20
DA:24,80
DA:25,64
DA:26,16
DA:27,48
DA:29,4
DA:32,0
DA:36,0
DA:37,0
DA:38,0
DA:39,0
DA:40,0
DA:42,0
DA:45,8
DA:53,8
DA:55,40
DA:56,160
DA:57,128
DA:58,128
DA:59,128
DA:61,8
DA:63,0
DA:65,0
DA:66,0
DA:68,0
DA:70,0
DA:71,0
DA:74,0
DA:76,0
DA:77,0
DA:78,0
DA:79,0
DA:81,0
DA:83,0
DA:84,0
DA:85,0
DA:86,0
DA:88,6
DA:90,6
DA:91,6
DA:92,6
DA:93,6
DA:94,6
DA:97,4
DA:99,4
DA:100,4
DA:101,4
DA:102,4
DA:104,4
DA:105,4
DA:106,4
DA:107,4
DA:109,4
DA:110,4
DA:111,4
DA:112,4
DA:114,4
DA:115,4
DA:116,4
DA:117,4
DA:118,4
DA:121,0
DA:125,0
DA:126,0
DA:127,0
DA:128,0
DA:129,0
DA:130,0
DA:131,0
DA:133,0
DA:138,4
DA:144,4
DA:145,4
DA:147,20
DA:150,16
DA:151,16
DA:152,40
DA:153,24
DA:154,0
DA:155,0
DA:159,16
DA:163,16
DA:164,0
DA:165,0
DA:166,0
DA:167,0
DA:169,0
DA:170,0
DA:171,0
DA:176,16
DA:177,80
DA:178,64
DA:179,64
DA:183,80
DA:184,48
DA:185,240
DA:186,192
DA:187,192
DA:192,4
DA:198,4
DA:201,4
DA:203,4
DA:204,4
DA:206,0
DA:210,0
DA:211,0
DA:212,0
DA:213,0
DA:214,0
DA:215,0
DA:216,0
DA:217,0
DA:221,0
DA:225,0
DA:226,0
DA:227,0
DA:229,0
DA:230,0
DA:231,0
DA:233,0
DA:234,0
DA:235,0
DA:237,0
DA:238,0
DA:239,0
DA:240,0
DA:245,6
DA:248,6
DA:249,6
DA:250,6
DA:251,6
DA:252,6
DA:253,6
DA:256,96
DA:259,96
DA:260,96
DA:261,96
DA:262,96
DA:265,146
DA:268,146
DA:269,146
DA:270,146
DA:271,146
DA:272,146
LF:150
LH:86
end_of_record
TN:
SF:/disk2/graphdev/TinyGLRender/test3ds/Render3DRdc01/TyGL/msghandling.cpp
FN:15,_Z11tgl_warningPKcz
FN:28,_Z9tgl_tracePKcz
FN:43,_Z9tgl_fixmePKcz
FNDA:0,_Z11tgl_warningPKcz
FNDA:2,_Z9tgl_tracePKcz
FNDA:0,_Z9tgl_fixmePKcz
FNF:3
FNH:1
DA:15,0
DA:24,0
DA:28,2
DA:37,2
DA:43,0
DA:52,0
LF:6
LH:2
end_of_record
TN:
SF:/disk2/graphdev/TinyGLRender/test3ds/Render3DRdc01/TyGL/specbuf.cpp
FN:6,_ZL8calc_bufP9GLSpecBuff
FN:19,_Z18specbuf_get_bufferP9GLContextif
FNDA:2,_ZL8calc_bufP9GLSpecBuff
FNDA:774120,_Z18specbuf_get_bufferP9GLContextif
FNF:2
FNH:2
DA:6,2
DA:10,2
DA:11,2
DA:12,2052
DA:13,2050
DA:14,2050
DA:16,2
DA:19,774120
DA:23,774120
DA:24,774120
DA:25,0
DA:26,0
DA:28,0
DA:30,774120
DA:31,774118
DA:32,774118
DA:34,2
DA:36,2
DA:37,2
DA:38,2
DA:39,2
DA:40,2
DA:41,2
DA:42,2
DA:43,2
DA:44,2
DA:48,0
DA:49,0
DA:50,0
DA:51,0
LF:30
LH:23
end_of_record
TN:
SF:/disk2/graphdev/TinyGLRender/test3ds/Render3DRdc01/TyGL/matrix.cpp
FN:3,_Z15gl_print_matrixPKf
FN:12,_ZL16gl_matrix_updateP9GLContext
FN:18,_Z14glopMatrixModeP9GLContextP7GLParam
FN:36,_Z14glopLoadMatrixP9GLContextP7GLParam
FN:57,_Z16glopLoadIdentityP9GLContextP7GLParam
FN:65,_Z14glopMultMatrixP9GLContextP7GLParam
FN:87,_Z14glopPushMatrixP9GLContextP7GLParam
FN:102,_Z13glopPopMatrixP9GLContextP7GLParam
FN:112,_Z10glopRotateP9GLContextP7GLParam
FN:182,_Z9glopScaleP9GLContextP7GLParam
FN:196,_Z13glopTranslateP9GLContextP7GLParam
FN:212,_Z11glopFrustumP9GLContextP7GLParam
FNDA:0,_Z15gl_print_matrixPKf
FNDA:28,_ZL16gl_matrix_updateP9GLContext
FNDA:16,_Z14glopMatrixModeP9GLContextP7GLParam
FNDA:0,_Z14glopLoadMatrixP9GLContextP7GLParam
FNDA:16,_Z16glopLoadIdentityP9GLContextP7GLParam
FNDA:2,_Z14glopMultMatrixP9GLContextP7GLParam
FNDA:0,_Z14glopPushMatrixP9GLContextP7GLParam
FNDA:0,_Z13glopPopMatrixP9GLContextP7GLParam
FNDA:0,_Z10glopRotateP9GLContextP7GLParam
FNDA:2,_Z9glopScaleP9GLContextP7GLParam
FNDA:2,_Z13glopTranslateP9GLContextP7GLParam
FNDA:6,_Z11glopFrustumP9GLContextP7GLParam
FNF:12
FNH:7
DA:3,0
DA:7,0
DA:8,0
DA:10,0
DA:12,28
DA:14,28
DA:15,28
DA:18,16
DA:20,16
DA:21,16
DA:23,8
DA:24,8
DA:26,6
DA:27,6
DA:29,2
DA:30,2
DA:32,0
DA:34,16
DA:36,0
DA:43,0
DA:44,0
DA:46,0
DA:47,0
DA:48,0
DA:49,0
DA:50,0
DA:51,0
DA:54,0
DA:55,0
DA:57,16
DA:60,16
DA:62,16
DA:63,16
DA:65,2
DA:71,2
DA:73,10
DA:74,8
DA:75,8
DA:76,8
DA:77,8
DA:78,8
DA:81,2
DA:83,2
DA:84,2
DA:87,0
DA:89,0
DA:92,0
DA:93,0
DA:95,0
DA:97,0
DA:99,0
DA:100,0
DA:102,0
DA:104,0
DA:106,0
DA:107,0
DA:108,0
DA:109,0
DA:112,0
DA:119,0
DA:120,0
DA:121,0
DA:122,0
DA:125,0
DA:127,0
DA:129,0
DA:130,0
DA:132,0
DA:133,0
DA:134,0
DA:136,0
DA:137,0
DA:138,0
DA:140,0
DA:141,0
DA:142,0
DA:148,0
DA:149,0
DA:150,0
DA:151,0
DA:152,0
DA:153,0
DA:156,0
DA:157,0
DA:160,0
DA:161,0
DA:162,0
DA:165,0
DA:166,0
DA:167,0
DA:168,0
DA:169,0
DA:170,0
DA:171,0
DA:172,0
DA:173,0
DA:177,0
DA:179,0
DA:182,2
DA:185,2
DA:187,2
DA:189,2
DA:190,2
DA:191,2
DA:192,2
DA:193,2
DA:194,2
DA:196,2
DA:199,2
DA:201,2
DA:203,2
DA:204,2
DA:205,2
DA:206,2
DA:208,2
DA:209,2
DA:212,6
DA:216,6
DA:217,6
DA:218,6
DA:219,6
DA:220,6
DA:221,6
DA:224,6
DA:225,6
DA:226,6
DA:227,6
DA:228,6
DA:229,6
DA:231,6
DA:232,6
DA:233,6
DA:234,6
DA:235,6
DA:237,6
DA:239,6
DA:240,6
LF:137
LH:67
end_of_record
TN:
SF:/disk2/graphdev/TinyGLRender/test3ds/Render3DRdc01/TyGL/oscontext.cpp
FN:10,ostgl_create_context
FN:50,ostgl_delete_context
FN:66,ostgl_make_current
FN:74,ostgl_resize
FNDA:0,ostgl_create_context
FNDA:0,ostgl_delete_context
FNDA:0,ostgl_make_current
FNDA:0,ostgl_resize
FNF:4
FNH:0
DA:10,0
DA:20,0
DA:22,0
DA:24,0
DA:25,0
DA:26,0
DA:27,0
DA:29,0
DA:31,0
DA:32,0
DA:33,0
DA:34,0
DA:35,0
DA:36,0
DA:38,0
DA:40,0
DA:41,0
DA:43,0
DA:44,0
DA:45,0
DA:46,0
DA:50,0
DA:53,0
DA:54,0
DA:56,0
DA:57,0
DA:58,0
DA:60,0
DA:61,0
DA:63,0
DA:66,0
DA:68,0
DA:69,0
DA:70,0
DA:71,0
DA:74,0
DA:80,0
DA:81,0
DA:83,0
LF:39
LH:0
end_of_record
TN:
SF:/disk2/graphdev/TinyGLRender/test3ds/Render3DRdc01/TyGL/get.cpp
FN:3,_Z13glGetIntegerviPi
FN:35,_Z11glGetFloatviPf
FNDA:0,_Z13glGetIntegerviPi
FNDA:0,_Z11glGetFloatviPf
FNF:2
FNH:0
DA:3,0
DA:5,0
DA:7,0
DA:9,0
DA:10,0
DA:11,0
DA:12,0
DA:13,0
DA:15,0
DA:16,0
DA:18,0
DA:19,0
DA:21,0
DA:22,0
DA:24,0
DA:25,0
DA:27,0
DA:28,0
DA:30,0
DA:31,0
DA:33,0
DA:35,0
DA:38,0
DA:39,0
DA:40,0
DA:42,0
DA:44,0
DA:47,0
DA:48,0
DA:49,0
DA:50,0
DA:51,0
DA:52,0
DA:53,0
DA:56,0
DA:58,0
DA:59,0
DA:61,0
DA:62,0
DA:64,0
DA:65,0
DA:67,0
DA:69,0
DA:70,0
DA:72,0
LF:45
LH:0
end_of_record
TN:
SF:/disk2/graphdev/TinyGLRender/test3ds/Render3DRdc01/TyGL/vertex.cpp
FN:4,_Z10glopNormalP9GLContextP7GLParam
FN:18,_Z12glopTexCoordP9GLContextP7GLParam
FN:26,_Z12glopEdgeFlagP9GLContextP7GLParam
FN:31,_Z9glopColorP9GLContextP7GLParam
FN:56,_Z16gl_eval_viewportP9GLContext
FN:72,_Z9glopBeginP9GLContextP7GLParam
FN:146,_ZL19gl_vertex_transformP9GLContextP8GLVertex
FN:207,_Z10glopVertexP9GLContextP7GLParam
FN:349,_Z7glopEndP9GLContextP7GLParam
FNDA:435822,_Z10glopNormalP9GLContextP7GLParam
FNDA:19116,_Z12glopTexCoordP9GLContextP7GLParam
FNDA:0,_Z12glopEdgeFlagP9GLContextP7GLParam
FNDA:2,_Z9glopColorP9GLContextP7GLParam
FNDA:2,_Z16gl_eval_viewportP9GLContext
FNDA:72,_Z9glopBeginP9GLContextP7GLParam
FNDA:436092,_ZL19gl_vertex_transformP9GLContextP8GLVertex
FNDA:436092,_Z10glopVertexP9GLContextP7GLParam
FNDA:72,_Z7glopEndP9GLContextP7GLParam
FNF:9
FNH:8
DA:4,435822
DA:8,435822
DA:9,435822
DA:10,435822
DA:12,435822
DA:13,435822
DA:14,435822
DA:15,435822
DA:16,435822
DA:18,19116
DA:20,19116
DA:21,19116
DA:22,19116
DA:23,19116
DA:24,19116
DA:26,0
DA:28,0
DA:29,0
DA:31,2
DA:34,2
DA:35,2
DA:36,2
DA:37,2
DA:38,2
DA:39,2
DA:40,2
DA:42,2
DA:44,2
DA:45,2
DA:46,2
DA:47,2
DA:48,2
DA:49,2
DA:50,2
DA:51,2
DA:53,2
DA:56,2
DA:59,2
DA:61,2
DA:63,2
DA:64,2
DA:65,2
DA:67,2
DA:68,2
DA:69,2
DA:70,2
DA:72,72
DA:77,72
DA:79,72
DA:80,72
DA:81,72
DA:82,72
DA:83,72
DA:85,72
DA:87,4
DA:89,4
DA:90,4
DA:92,0
DA:94,0
DA:96,0
DA:98,0
DA:99,0
DA:100,0
DA:104,4
DA:106,4
DA:109,72
DA:110,2
DA:111,2
DA:114,72
DA:115,0
DA:116,0
DA:118,72
DA:120,0
DA:121,0
DA:123,0
DA:124,0
DA:126,72
DA:127,72
DA:130,72
DA:132,0
DA:133,0
DA:135,0
DA:136,0
DA:138,72
DA:139,72
DA:142,72
DA:146,436092
DA:151,436092
DA:154,436092
DA:155,872184
DA:156,872184
DA:157,872184
DA:158,872184
DA:159,872184
DA:160,872184
DA:161,872184
DA:162,872184
DA:165,436092
DA:166,872184
DA:167,872184
DA:168,872184
DA:169,872184
DA:170,872184
DA:171,872184
DA:172,872184
DA:173,872184
DA:175,436092
DA:176,436092
DA:178,436092
DA:179,436092
DA:180,436092
DA:182,436092
DA:183,0
DA:188,0
DA:190,0
DA:191,0
DA:192,0
DA:193,0
DA:194,0
DA:195,0
DA:196,0
DA:197,0
DA:199,0
DA:200,0
DA:204,436092
DA:205,436092
DA:207,436092
DA:212,436092
DA:214,436092
DA:215,436092
DA:216,436092
DA:217,436092
DA:220,436092
DA:222,0
DA:223,0
DA:224,0
DA:225,0
DA:227,0
DA:228,0
DA:229,0
DA:232,436092
DA:233,436092
DA:235,436092
DA:236,436092
DA:237,436092
DA:238,436092
DA:240,436092
DA:244,436092
DA:245,436092
DA:247,0
DA:252,436092
DA:253,19116
DA:254,0
DA:256,19116
DA:260,436092
DA:261,435936
DA:265,436092
DA:267,436092
DA:269,0
DA:270,0
DA:271,0
DA:274,0
DA:275,0
DA:276,0
DA:278,0
DA:281,0
DA:282,0
DA:283,0
DA:284,0
DA:285,0
DA:286,0
DA:288,0
DA:291,435828
DA:292,145276
DA:293,145276
DA:295,435828
DA:297,0
DA:298,0
DA:299,0
DA:301,0
DA:303,0
DA:304,0
DA:307,0
DA:308,0
DA:311,0
DA:313,0
DA:314,0
DA:315,0
DA:316,0
DA:318,0
DA:321,0
DA:322,0
DA:323,0
DA:324,0
DA:325,0
DA:326,0
DA:327,0
DA:329,0
DA:332,0
DA:333,0
DA:334,0
DA:335,0
DA:336,0
DA:337,0
DA:339,0
DA:341,264
DA:343,0
DA:346,436092
DA:347,436092
DA:349,72
DA:351,72
DA:353,72
DA:354,0
DA:355,0
DA:357,72
DA:358,66
DA:359,330
DA:360,132
DA:361,132
DA:364,72
DA:365,72
LF:221
LH:135
end_of_record
SF:/disk2/graphdev/TinyGLRender/test3ds/Render3DRdc01/TyGL/zgl.h
FN:360,_ZL11gl_clipcodeffff
FNDA:436092,_ZL11gl_clipcodeffff
FNF:1
FNH:1
DA:360,436092
DA:364,436092
DA:365,872184
DA:366,872184
DA:367,872184
DA:368,872184
DA:369,436092
DA:370,436092
LF:8
LH:8
end_of_record
TN:
SF:/disk2/graphdev/TinyGLRender/test3ds/Render3DRdc01/TyGL/memory.cpp
FN:8,_Z7gl_freePv
FN:13,_Z9gl_malloci
FN:18,_Z9gl_zalloci
FNDA:8,_Z7gl_freePv
FNDA:16,_Z9gl_malloci
FNDA:16,_Z9gl_zalloci
FNF:3
FNH:3
DA:8,8
DA:10,8
DA:11,8
DA:13,16
DA:15,16
DA:18,16
DA:20,16
LF:7
LH:7
end_of_record
TN:
SF:/disk2/graphdev/TinyGLRender/test3ds/Render3DRdc01/TyGL/list.cpp
FN:25,_Z14gl_get_contextv
FN:30,_ZL9find_listP9GLContextj
FN:35,_ZL11delete_listP9GLContexti
FN:55,_ZL10alloc_listP9GLContexti
FN:73,_Z11gl_print_opP8_IO_FILEP7GLParam
FN:102,_Z13gl_compile_opP9GLContextP7GLParam
FN:135,_Z9gl_add_opP7GLParam
FN:153,_Z11glopEndListP9GLContextP7GLParam
FN:159,_Z14glopNextBufferP9GLContextP7GLParam
FN:165,_Z12glopCallListP9GLContextP7GLParam
FN:189,_Z9glNewListji
FN:208,_Z9glEndListv
FN:223,_Z8glIsListj
FN:231,_Z10glGenListsi
FNDA:891320,_Z14gl_get_contextv
FNDA:0,_ZL9find_listP9GLContextj
FNDA:0,_ZL11delete_listP9GLContexti
FNDA:0,_ZL10alloc_listP9GLContexti
FNDA:0,_Z11gl_print_opP8_IO_FILEP7GLParam
FNDA:0,_Z13gl_compile_opP9GLContextP7GLParam
FNDA:891312,_Z9gl_add_opP7GLParam
FNDA:0,_Z11glopEndListP9GLContextP7GLParam
FNDA:0,_Z14glopNextBufferP9GLContextP7GLParam
FNDA:0,_Z12glopCallListP9GLContextP7GLParam
FNDA:0,_Z9glNewListji
FNDA:0,_Z9glEndListv
FNDA:0,_Z8glIsListj
FNDA:0,_Z10glGenListsi
FNF:14
FNH:2
DA:25,891320
DA:27,891320
DA:30,0
DA:32,0
DA:35,0
DA:40,0
DA:41,0
DA:44,0
DA:45,0
DA:46,0
DA:47,0
DA:48,0
DA:51,0
DA:52,0
DA:53,0
DA:55,0
DA:60,0
DA:61,0
DA:63,0
DA:64,0
DA:66,0
DA:68,0
DA:69,0
DA:73,0
DA:78,0
DA:79,0
DA:80,0
DA:81,0
DA:82,0
DA:83,0
DA:84,0
DA:86,0
DA:87,0
DA:89,0
DA:90,0
DA:92,0
DA:94,0
DA:95,0
DA:98,0
DA:99,0
DA:102,0
DA:108,0
DA:109,0
DA:110,0
DA:111,0
DA:114,0
DA:116,0
DA:117,0
DA:119,0
DA:120,0
DA:121,0
DA:123,0
DA:124,0
DA:125,0
DA:128,0
DA:129,0
DA:130,0
DA:132,0
DA:133,0
DA:135,891312
DA:137,891312
DA:140,891312
DA:141,891312
DA:142,891312
DA:144,891312
DA:145,0
DA:147,891312
DA:148,0
DA:150,891312
DA:153,0
DA:155,0
DA:159,0
DA:161,0
DA:165,0
DA:170,0
DA:171,0
DA:172,0
DA:173,0
DA:175,0
DA:176,0
DA:177,0
DA:178,0
DA:179,0
DA:181,0
DA:182,0
DA:185,0
DA:189,0
DA:192,0
DA:194,0
DA:195,0
DA:197,0
DA:198,0
DA:199,0
DA:201,0
DA:202,0
DA:204,0
DA:205,0
DA:206,0
DA:208,0
DA:210,0
DA:213,0
DA:216,0
DA:217,0
DA:219,0
DA:220,0
DA:221,0
DA:223,0
DA:225,0
DA:227,0
DA:228,0
DA:231,0
DA:233,0
DA:237,0
DA:238,0
DA:239,0
DA:240,0
DA:241,0
DA:242,0
DA:243,0
DA:244,0
DA:245,0
DA:247,0
DA:250,0
DA:253,0
LF:124
LH:10
end_of_record
TN:
SF:/disk2/graphdev/TinyGLRender/test3ds/Render3DRdc01/TyGL/zbuffer.cpp
FN:12,_Z7ZB_openiiiiPhPiPv
FN:75,_Z8ZB_closeP7ZBuffer
FN:89,_Z9ZB_resizeP7ZBufferPvii
FN:117,_ZL13ZB_copyBufferP7ZBufferPvi
FN:311,_ZL24ZB_copyFrameBuffer5R6G5BP7ZBufferPvi
FN:336,_Z18ZB_copyFrameBufferP7ZBufferPvi
FN:413,_Z8memset_sPvii
FN:437,_Z8memset_lPvii
FN:459,_Z12memset_RGB24Pviiil
FN:500,_Z8ZB_clearP7ZBufferiiiiii
FNDA:2,_Z7ZB_openiiiiPhPiPv
FNDA:0,_Z8ZB_closeP7ZBuffer
FNDA:0,_Z9ZB_resizeP7ZBufferPvii
FNDA:0,_ZL13ZB_copyBufferP7ZBufferPvi
FNDA:0,_ZL24ZB_copyFrameBuffer5R6G5BP7ZBufferPvi
FNDA:0,_Z18ZB_copyFrameBufferP7ZBufferPvi
FNDA:0,_Z8memset_sPvii
FNDA:0,_Z8memset_lPvii
FNDA:0,_Z12memset_RGB24Pviiil
FNDA:0,_Z8ZB_clearP7ZBufferiiiiii
FNF:10
FNH:1
DA:12,2
DA:21,2
DA:22,2
DA:23,0
DA:25,2
DA:26,2
DA:27,2
DA:28,2
DA:30,2
DA:33,0
DA:34,0
DA:43,2
DA:44,2
DA:46,0
DA:49,2
DA:51,2
DA:52,2
DA:53,0
DA:55,2
DA:56,2
DA:57,2
DA:58,0
DA:59,0
DA:61,2
DA:63,0
DA:64,0
DA:67,2
DA:69,2
DA:71,0
DA:72,0
DA:75,0
DA:78,0
DA:79,0
DA:82,0
DA:83,0
DA:85,0
DA:86,0
DA:87,0
DA:89,0
DA:94,0
DA:96,0
DA:97,0
DA:98,0
DA:100,0
DA:102,0
DA:103,0
DA:105,0
DA:106,0
DA:108,0
DA:109,0
DA:110,0
DA:112,0
DA:113,0
DA:115,0
DA:117,0
DA:125,0
DA:126,0
DA:127,0
DA:128,0
DA:129,0
DA:130,0
DA:131,0
DA:133,0
DA:311,0
DA:318,0
DA:319,0
DA:321,0
DA:322,0
DA:323,0
DA:324,0
DA:325,0
DA:326,0
DA:327,0
DA:328,0
DA:329,0
DA:330,0
DA:332,0
DA:334,0
DA:336,0
DA:339,0
DA:342,0
DA:343,0
DA:347,0
DA:348,0
DA:351,0
DA:353,0
DA:413,0
DA:419,0
DA:420,0
DA:422,0
DA:423,0
DA:424,0
DA:425,0
DA:426,0
DA:427,0
DA:428,0
DA:431,0
DA:432,0
DA:433,0
DA:434,0
DA:435,0
DA:437,0
DA:442,0
DA:443,0
DA:444,0
DA:445,0
DA:446,0
DA:447,0
DA:448,0
DA:449,0
DA:450,0
DA:453,0
DA:454,0
DA:455,0
DA:456,0
DA:459,0
DA:462,0
DA:463,0
DA:465,0
DA:468,0
DA:469,0
DA:470,0
DA:471,0
DA:473,0
DA:474,0
DA:475,0
DA:498,0
DA:500,0
DA:509,0
DA:510,0
DA:512,0
DA:513,0
DA:514,0
DA:522,0
DA:526,0
DA:529,0
LF:136
LH:19
end_of_record
TN:
SF:/disk2/graphdev/TinyGLRender/test3ds/Render3DRdc01/TyGL/select.cpp
FN:3,_Z12glRenderModei
FN:42,_Z14glSelectBufferiPj
FN:53,_Z13glopInitNamesP9GLContextP7GLParam
FN:61,_Z12glopPushNameP9GLContextP7GLParam
FN:70,_Z11glopPopNameP9GLContextP7GLParam
FN:79,_Z12glopLoadNameP9GLContextP7GLParam
FN:88,_Z13gl_add_selectP9GLContextjj
FNDA:0,_Z12glRenderModei
FNDA:0,_Z14glSelectBufferiPj
FNDA:0,_Z13glopInitNamesP9GLContextP7GLParam
FNDA:0,_Z12glopPushNameP9GLContextP7GLParam
FNDA:0,_Z11glopPopNameP9GLContextP7GLParam
FNDA:0,_Z12glopLoadNameP9GLContextP7GLParam
FNDA:0,_Z13gl_add_selectP9GLContextjj
FNF:7
FNH:0
DA:3,0
DA:5,0
DA:6,0
DA:8,0
DA:10,0
DA:12,0
DA:13,0
DA:15,0
DA:17,0
DA:18,0
DA:19,0
DA:20,0
DA:22,0
DA:24,0
DA:26,0
DA:27,0
DA:29,0
DA:30,0
DA:31,0
DA:32,0
DA:33,0
DA:34,0
DA:35,0
DA:37,0
DA:39,0
DA:42,0
DA:44,0
DA:46,0
DA:48,0
DA:49,0
DA:50,0
DA:53,0
DA:55,0
DA:56,0
DA:57,0
DA:59,0
DA:61,0
DA:63,0
DA:64,0
DA:65,0
DA:66,0
DA:68,0
DA:70,0
DA:72,0
DA:73,0
DA:74,0
DA:75,0
DA:77,0
DA:79,0
DA:81,0
DA:82,0
DA:83,0
DA:84,0
DA:86,0
DA:88,0
DA:93,0
DA:94,0
DA:95,0
DA:96,0
DA:97,0
DA:98,0
DA:100,0
DA:101,0
DA:102,0
DA:103,0
DA:104,0
DA:105,0
DA:106,0
DA:107,0
DA:110,0
DA:111,0
DA:114,0
LF:72
LH:0
end_of_record
TN:
SF:/disk2/graphdev/TinyGLRender/test3ds/Render3DRdc01/TyGL/arrays.cpp
FN:11,_Z16glopArrayElementP9GLContextP7GLParam
FN:55,_Z14glArrayElementi
FN:65,_Z21glopEnableClientStateP9GLContextP7GLParam
FN:71,_Z19glEnableClientStatei
FN:97,_Z22glopDisableClientStateP9GLContextP7GLParam
FN:103,_Z20glDisableClientStatei
FN:129,_Z17glopVertexPointerP9GLContextP7GLParam
FN:137,_Z15glVertexPointeriiiPKv
FN:150,_Z16glopColorPointerP9GLContextP7GLParam
FN:158,_Z14glColorPointeriiiPKv
FN:171,_Z17glopNormalPointerP9GLContextP7GLParam
FN:178,_Z15glNormalPointeriiPKv
FN:189,_Z19glopTexCoordPointerP9GLContextP7GLParam
FN:197,_Z17glTexCoordPointeriiiPKv
FNDA:0,_Z16glopArrayElementP9GLContextP7GLParam
FNDA:0,_Z14glArrayElementi
FNDA:0,_Z21glopEnableClientStateP9GLContextP7GLParam
FNDA:0,_Z19glEnableClientStatei
FNDA:0,_Z22glopDisableClientStateP9GLContextP7GLParam
FNDA:0,_Z20glDisableClientStatei
FNDA:0,_Z17glopVertexPointerP9GLContextP7GLParam
FNDA:0,_Z15glVertexPointeriiiPKv
FNDA:0,_Z16glopColorPointerP9GLContextP7GLParam
FNDA:0,_Z14glColorPointeriiiPKv
FNDA:0,_Z17glopNormalPointerP9GLContextP7GLParam
FNDA:0,_Z15glNormalPointeriiPKv
FNDA:0,_Z19glopTexCoordPointerP9GLContextP7GLParam
FNDA:0,_Z17glTexCoordPointeriiiPKv
FNF:14
FNH:0
DA:11,0
DA:14,0
DA:15,0
DA:17,0
DA:19,0
DA:20,0
DA:21,0
DA:22,0
DA:23,0
DA:24,0
DA:25,0
DA:27,0
DA:28,0
DA:29,0
DA:30,0
DA:31,0
DA:32,0
DA:34,0
DA:35,0
DA:36,0
DA:37,0
DA:38,0
DA:39,0
DA:40,0
DA:42,0
DA:44,0
DA:45,0
DA:46,0
DA:47,0
DA:48,0
DA:49,0
DA:50,0
DA:52,0
DA:55,0
DA:58,0
DA:59,0
DA:60,0
DA:61,0
DA:65,0
DA:67,0
DA:68,0
DA:71,0
DA:74,0
DA:76,0
DA:78,0
DA:79,0
DA:81,0
DA:82,0
DA:84,0
DA:85,0
DA:87,0
DA:88,0
DA:90,0
DA:93,0
DA:94,0
DA:97,0
DA:99,0
DA:100,0
DA:103,0
DA:106,0
DA:108,0
DA:110,0
DA:111,0
DA:113,0
DA:114,0
DA:116,0
DA:117,0
DA:119,0
DA:120,0
DA:122,0
DA:125,0
DA:126,0
DA:129,0
DA:131,0
DA:132,0
DA:133,0
DA:134,0
DA:137,0
DA:141,0
DA:142,0
DA:143,0
DA:144,0
DA:145,0
DA:146,0
DA:147,0
DA:150,0
DA:152,0
DA:153,0
DA:154,0
DA:155,0
DA:158,0
DA:162,0
DA:163,0
DA:164,0
DA:165,0
DA:166,0
DA:167,0
DA:168,0
DA:171,0
DA:173,0
DA:174,0
DA:175,0
DA:178,0
DA:182,0
DA:183,0
DA:184,0
DA:185,0
DA:186,0
DA:189,0
DA:191,0
DA:192,0
DA:193,0
DA:194,0
DA:197,0
DA:201,0
DA:202,0
DA:203,0
DA:204,0
DA:205,0
DA:206,0
LF:120
LH:0
end_of_record
TN:
SF:/disk2/graphdev/TinyGLRender/test3ds/Render3DRdc01/TyGL/glx.cpp
FN:23,_Z16glXCreateContextPvb
FN:38,_Z17glXDestroyContextPv
FN:54,_Z19glX_resize_viewportP9GLContextPiS1_
FN:92,_Z14glXSwapBuffersv
FN:124,_Z9glXWaitGLv
FN:128,_Z8glXWaitXv
FNDA:2,_Z16glXCreateContextPvb
FNDA:0,_Z17glXDestroyContextPv
FNDA:0,_Z19glX_resize_viewportP9GLContextPiS1_
FNDA:2,_Z14glXSwapBuffersv
FNDA:0,_Z9glXWaitGLv
FNDA:0,_Z8glXWaitXv
FNF:6
FNH:2
DA:23,2
DA:28,2
DA:29,0
DA:31,2
DA:32,2
DA:34,2
DA:38,0
DA:40,0
DA:41,0
DA:42,0
DA:44,0
DA:45,0
DA:54,0
DA:59,0
DA:61,0
DA:62,0
DA:66,0
DA:67,0
DA:69,0
DA:71,0
DA:72,0
DA:76,0
DA:77,0
DA:83,0
DA:84,0
DA:88,0
DA:92,2
DA:98,2
DA:99,2
DA:101,4
DA:102,2
DA:103,2
DA:104,3202
DA:106,3200
DA:107,3200
DA:108,5123200
DA:110,5120000
DA:112,5120000
DA:113,5120000
DA:114,5120000
DA:117,2
DA:118,4
DA:124,0
DA:126,0
DA:128,0
DA:130,0
LF:46
LH:21
end_of_record
SF:/disk2/graphdev/TinyGLRender/test3ds/Render3DRdc01/include/c24bitmap.h
FN:472,_ZN9C24BitMapC2Ev
FN:482,_ZN9C24BitMapD2Ev
FN:487,_ZN9C24BitMap7FormatFEii
FN:504,_ZN9C24BitMap4SaveEPc
FN:540,_Z13get_pix_colorR9C24BitMapii
FNDA:4,_ZN9C24BitMapC2Ev
FNDA:4,_ZN9C24BitMapD2Ev
FNDA:2,_ZN9C24BitMap7FormatFEii
FNDA:2,_ZN9C24BitMap4SaveEPc
FNDA:5120000,_Z13get_pix_colorR9C24BitMapii
FNF:5
FNH:5
DA:472,4
DA:474,4
DA:475,4
DA:476,4
DA:477,4
DA:478,4
DA:479,4
DA:480,4
DA:482,8
DA:484,4
DA:485,4
DA:487,2
DA:493,2
DA:495,2
DA:496,2
DA:497,2
DA:498,2
DA:499,2
DA:500,2
DA:501,2
DA:502,2
DA:504,2
DA:506,2
DA:507,2
DA:508,2
DA:509,2
DA:510,2
DA:511,2
DA:540,5120000
DA:541,5120000
DA:543,5120000
DA:544,5120000
DA:551,5120000
LF:33
LH:33
end_of_record
TN:
SF:/disk2/graphdev/TinyGLRender/test3ds/Render3DRdc01/TyGL/api.cpp
FN:5,_Z10glVertex4fffff
FN:18,_Z10glVertex2fff
FN:23,_Z10glVertex3ffff
FN:28,_Z11glVertex3fvPf
FN:35,_Z10glNormal3ffff
FN:47,_Z11glNormal3fvPf
FN:54,_Z9glColor4fffff
FN:73,_Z10glColor4fvPf
FN:92,_Z9glColor3ffff
FN:97,_Z10glColor3fvPf
FN:105,_Z12glTexCoord4fffff
FN:118,_Z12glTexCoord2fff
FN:123,_Z13glTexCoord2fvPf
FN:128,_Z10glEdgeFlagi
FN:140,_Z12glShadeModeli
FN:152,_Z10glCullFacei
FN:166,_Z11glFrontFacei
FN:180,_Z13glPolygonModeii
FN:199,_Z8glEnablei
FN:210,_Z9glDisablei
FN:223,_Z7glBegini
FN:233,_Z5glEndv
FN:244,_Z12glMatrixModei
FN:254,_Z13glLoadMatrixfPKf
FN:265,_Z14glLoadIdentityv
FN:274,_Z13glMultMatrixfPKf
FN:285,_Z12glPushMatrixv
FN:294,_Z11glPopMatrixv
FN:303,_Z9glRotatefffff
FN:316,_Z12glTranslateffff
FN:328,_Z8glScaleffff
FN:341,_Z10glViewportiiii
FN:354,_Z9glFrustumdddddd
FN:372,_Z12glMaterialfviiPf
FN:390,_Z11glMaterialfiif
FN:404,_Z15glColorMaterialii
FN:415,_Z9glLightfviiPf
FN:430,_Z8glLightfiif
FN:444,_Z13glLightModeliii
FN:457,_Z14glLightModelfviPf
FN:471,_Z7glCleari
FN:481,_Z12glClearColorffff
FN:494,_Z12glClearDepthd
FN:507,_Z12glTexImage2DiiiiiiiiPv
FN:528,_Z13glBindTextureii
FN:539,_Z9glTexEnviiii
FN:555,_Z15glTexParameteriiii
FN:571,_Z13glPixelStoreiii
FN:584,_Z11glInitNamesv
FN:593,_Z10glPushNamej
FN:603,_Z9glPopNamev
FN:612,_Z10glLoadNamej
FN:623,_Z15glPolygonOffsetff
FN:633,_Z10glCallListj
FN:643,_Z7glFlushv
FN:648,_Z6glHintii
FN:661,_Z7glDebugi
FNDA:436092,_Z10glVertex4fffff
FNDA:0,_Z10glVertex2fff
FNDA:435828,_Z10glVertex3ffff
FNDA:264,_Z11glVertex3fvPf
FNDA:435822,_Z10glNormal3ffff
FNDA:0,_Z11glNormal3fvPf
FNDA:2,_Z9glColor4fffff
FNDA:0,_Z10glColor4fvPf
FNDA:2,_Z9glColor3ffff
FNDA:0,_Z10glColor3fvPf
FNDA:19116,_Z12glTexCoord4fffff
FNDA:19116,_Z12glTexCoord2fff
FNDA:0,_Z13glTexCoord2fvPf
FNDA:0,_Z10glEdgeFlagi
FNDA:0,_Z12glShadeModeli
FNDA:0,_Z10glCullFacei
FNDA:0,_Z11glFrontFacei
FNDA:0,_Z13glPolygonModeii
FNDA:24,_Z8glEnablei
FNDA:2,_Z9glDisablei
FNDA:72,_Z7glBegini
FNDA:72,_Z5glEndv
FNDA:16,_Z12glMatrixModei
FNDA:0,_Z13glLoadMatrixfPKf
FNDA:16,_Z14glLoadIdentityv
FNDA:2,_Z13glMultMatrixfPKf
FNDA:0,_Z12glPushMatrixv
FNDA:0,_Z11glPopMatrixv
FNDA:0,_Z9glRotatefffff
FNDA:2,_Z12glTranslateffff
FNDA:2,_Z8glScaleffff
FNDA:6,_Z10glViewportiiii
FNDA:6,_Z9glFrustumdddddd
FNDA:24,_Z12glMaterialfviiPf
FNDA:8,_Z11glMaterialfiif
FNDA:0,_Z15glColorMaterialii
FNDA:12,_Z9glLightfviiPf
FNDA:0,_Z8glLightfiif
FNDA:0,_Z13glLightModeliii
FNDA:0,_Z14glLightModelfviPf
FNDA:0,_Z7glCleari
FNDA:0,_Z12glClearColorffff
FNDA:0,_Z12glClearDepthd
FNDA:2,_Z12glTexImage2DiiiiiiiiPv
FNDA:4,_Z13glBindTextureii
FNDA:0,_Z9glTexEnviiii
FNDA:8,_Z15glTexParameteriiii
FNDA:2,_Z13glPixelStoreiii
FNDA:0,_Z11glInitNamesv
FNDA:0,_Z10glPushNamej
FNDA:0,_Z9glPopNamev
FNDA:0,_Z10glLoadNamej
FNDA:0,_Z15glPolygonOffsetff
FNDA:0,_Z10glCallListj
FNDA:2,_Z7glFlushv
FNDA:0,_Z6glHintii
FNDA:0,_Z7glDebugi
FNF:57
FNH:27
DA:5,436092
DA:9,436092
DA:10,436092
DA:11,436092
DA:12,436092
DA:13,436092
DA:15,436092
DA:16,436092
DA:18,0
DA:20,0
DA:21,0
DA:23,435828
DA:25,435828
DA:26,435828
DA:28,264
DA:30,264
DA:31,264
DA:35,435822
DA:39,435822
DA:40,435822
DA:41,435822
DA:42,435822
DA:44,435822
DA:45,435822
DA:47,0
DA:49,0
DA:50,0
DA:54,2
DA:58,2
DA:59,2
DA:60,2
DA:61,2
DA:62,2
DA:64,2
DA:65,2
DA:66,2
DA:67,2
DA:68,2
DA:69,2
DA:70,2
DA:71,2
DA:73,0
DA:77,0
DA:78,0
DA:79,0
DA:80,0
DA:81,0
DA:83,0
DA:84,0
DA:85,0
DA:86,0
DA:87,0
DA:88,0
DA:89,0
DA:90,0
DA:92,2
DA:94,2
DA:95,2
DA:97,0
DA:99,0
DA:100,0
DA:105,19116
DA:109,19116
DA:110,19116
DA:111,19116
DA:112,19116
DA:113,19116
DA:115,19116
DA:116,19116
DA:118,19116
DA:120,19116
DA:121,19116
DA:123,0
DA:125,0
DA:126,0
DA:128,0
DA:132,0
DA:133,0
DA:135,0
DA:136,0
DA:140,0
DA:144,0
DA:146,0
DA:147,0
DA:149,0
DA:150,0
DA:152,0
DA:156,0
DA:158,0
DA:160,0
DA:161,0
DA:163,0
DA:164,0
DA:166,0
DA:170,0
DA:172,0
DA:174,0
DA:175,0
DA:177,0
DA:178,0
DA:180,0
DA:184,0
DA:186,0
DA:187,0
DA:189,0
DA:190,0
DA:191,0
DA:193,0
DA:194,0
DA:199,24
DA:203,24
DA:204,24
DA:205,24
DA:207,24
DA:208,24
DA:210,2
DA:214,2
DA:215,2
DA:216,2
DA:218,2
DA:219,2
DA:223,72
DA:227,72
DA:228,72
DA:230,72
DA:231,72
DA:233,72
DA:237,72
DA:239,72
DA:240,72
DA:244,16
DA:248,16
DA:249,16
DA:251,16
DA:252,16
DA:254,0
DA:259,0
DA:260,0
DA:262,0
DA:263,0
DA:265,16
DA:269,16
DA:271,16
DA:272,16
DA:274,2
DA:279,2
DA:280,2
DA:282,2
DA:283,2
DA:285,0
DA:289,0
DA:291,0
DA:292,0
DA:294,0
DA:298,0
DA:300,0
DA:301,0
DA:303,0
DA:307,0
DA:308,0
DA:309,0
DA:310,0
DA:311,0
DA:313,0
DA:314,0
DA:316,2
DA:320,2
DA:321,2
DA:322,2
DA:323,2
DA:325,2
DA:326,2
DA:328,2
DA:332,2
DA:333,2
DA:334,2
DA:335,2
DA:337,2
DA:338,2
DA:341,6
DA:345,6
DA:346,6
DA:347,6
DA:348,6
DA:349,6
DA:351,6
DA:352,6
DA:354,6
DA:359,6
DA:360,6
DA:361,6
DA:362,6
DA:363,6
DA:364,6
DA:365,6
DA:367,6
DA:368,6
DA:372,24
DA:377,24
DA:379,24
DA:380,24
DA:381,24
DA:382,24
DA:383,24
DA:384,24
DA:385,24
DA:387,24
DA:388,24
DA:390,8
DA:395,8
DA:396,8
DA:397,8
DA:398,8
DA:399,8
DA:401,8
DA:402,8
DA:404,0
DA:408,0
DA:409,0
DA:410,0
DA:412,0
DA:413,0
DA:415,12
DA:420,12
DA:421,12
DA:422,12
DA:424,12
DA:426,12
DA:427,12
DA:430,0
DA:435,0
DA:436,0
DA:437,0
DA:438,0
DA:439,0
DA:441,0
DA:442,0
DA:444,0
DA:449,0
DA:450,0
DA:451,0
DA:452,0
DA:454,0
DA:455,0
DA:457,0
DA:462,0
DA:463,0
DA:464,0
DA:466,0
DA:467,0
DA:471,0
DA:475,0
DA:476,0
DA:478,0
DA:479,0
DA:481,0
DA:485,0
DA:486,0
DA:487,0
DA:488,0
DA:489,0
DA:491,0
DA:492,0
DA:494,0
DA:498,0
DA:499,0
DA:501,0
DA:502,0
DA:507,2
DA:513,2
DA:514,2
DA:515,2
DA:516,2
DA:517,2
DA:518,2
DA:519,2
DA:520,2
DA:521,2
DA:522,2
DA:524,2
DA:525,2
DA:528,4
DA:532,4
DA:533,4
DA:534,4
DA:536,4
DA:537,4
DA:539,0
DA:543,0
DA:544,0
DA:545,0
DA:546,0
DA:547,0
DA:548,0
DA:549,0
DA:550,0
DA:552,0
DA:553,0
DA:555,8
DA:559,8
DA:560,8
DA:561,8
DA:562,8
DA:563,8
DA:564,8
DA:565,8
DA:566,8
DA:568,8
DA:569,8
DA:571,2
DA:575,2
DA:576,2
DA:577,2
DA:579,2
DA:580,2
DA:584,0
DA:588,0
DA:590,0
DA:591,0
DA:593,0
DA:597,0
DA:598,0
DA:600,0
DA:601,0
DA:603,0
DA:607,0
DA:609,0
DA:610,0
DA:612,0
DA:616,0
DA:617,0
DA:619,0
DA:620,0
DA:623,0
DA:626,0
DA:627,0
DA:628,0
DA:629,0
DA:633,0
DA:637,0
DA:638,0
DA:640,0
DA:641,0
DA:643,2
DA:646,2
DA:648,0
DA:652,0
DA:653,0
DA:654,0
DA:656,0
DA:657,0
DA:661,0
DA:663,0
DA:664,0
DA:665,0
LF:355
LH:180
end_of_record
TN:
SF:/disk2/graphdev/TinyGLRender/test3ds/Render3DRdc01/TyGL/zdither.cpp
FN:35,_Z13ZB_initDitherP7ZBufferiPhPi
FN:75,_Z14ZB_closeDitherP7ZBuffer
FN:105,_Z20ZB_ditherFrameBufferP7ZBufferPhi
FNDA:0,_Z13ZB_initDitherP7ZBufferiPhPi
FNDA:0,_Z14ZB_closeDitherP7ZBuffer
FNDA:0,_Z20ZB_ditherFrameBufferP7ZBufferPhi
FNF:3
FNH:0
DA:35,0
DA:40,0
DA:41,0
DA:42,0
DA:45,0
DA:47,0
DA:48,0
DA:50,0
DA:51,0
DA:52,0
DA:53,0
DA:54,0
DA:55,0
DA:56,0
DA:57,0
DA:58,0
DA:59,0
DA:64,0
DA:66,0
DA:67,0
DA:68,0
DA:69,0
DA:70,0
DA:71,0
DA:73,0
DA:75,0
DA:77,0
DA:78,0
DA:79,0
DA:105,0
DA:112,0
DA:116,0
DA:118,0
DA:119,0
DA:124,0
DA:125,0
DA:127,0
DA:128,0
DA:129,0
DA:131,0
DA:132,0
DA:133,0
DA:134,0
DA:136,0
DA:137,0
DA:139,0
DA:140,0
DA:141,0
DA:142,0
DA:144,0
DA:145,0
DA:146,0
DA:147,0
DA:149,0
DA:150,0
DA:152,0
DA:153,0
DA:157,0
LF:58
LH:0
end_of_record
